
bin/boot:     file format elf32-littlemips

Disassembly of section .text:

80020000 <init>:
80020000:	27bdffd0 	addiu	sp,sp,-48
80020004:	afbf002c 	sw	ra,44(sp)
80020008:	afbe0028 	sw	s8,40(sp)
8002000c:	03a0f021 	move	s8,sp
80020010:	0c00861f 	jal	8002187c <init_devices>
80020014:	00000000 	nop
80020018:	a3c00020 	sb	zero,32(s8)
8002001c:	a3c00028 	sb	zero,40(s8)
80020020:	0c008667 	jal	8002199c <init_poc>
80020024:	00000000 	nop
80020028:	3c028007 	lui	v0,0x8007
8002002c:	24443130 	addiu	a0,v0,12592
80020030:	3c028007 	lui	v0,0x8007
80020034:	2445313c 	addiu	a1,v0,12604
80020038:	0c0088fb 	jal	800223ec <init_scheduler>
8002003c:	00000000 	nop
80020040:	24040001 	li	a0,1
80020044:	24050019 	li	a1,25
80020048:	0c00881e 	jal	80022078 <make_process>
8002004c:	00000000 	nop
80020050:	afc20010 	sw	v0,16(s8)
80020054:	8fc30010 	lw	v1,16(s8)
80020058:	2402ffff 	li	v0,-1
8002005c:	10620005 	beq	v1,v0,80020074 <init+0x74>
80020060:	00000000 	nop
80020064:	3c028002 	lui	v0,0x8002
80020068:	244426d8 	addiu	a0,v0,9944
8002006c:	0c008457 	jal	8002115c <DputStr>
80020070:	00000000 	nop
80020074:	00002021 	move	a0,zero
80020078:	24050019 	li	a1,25
8002007c:	0c00881e 	jal	80022078 <make_process>
80020080:	00000000 	nop
80020084:	afc20010 	sw	v0,16(s8)
80020088:	8fc30010 	lw	v1,16(s8)
8002008c:	2402ffff 	li	v0,-1
80020090:	10620005 	beq	v1,v0,800200a8 <init+0xa8>
80020094:	00000000 	nop
80020098:	3c028002 	lui	v0,0x8002
8002009c:	244426f0 	addiu	a0,v0,9968
800200a0:	0c008457 	jal	8002115c <DputStr>
800200a4:	00000000 	nop
800200a8:	24040002 	li	a0,2
800200ac:	24050019 	li	a1,25
800200b0:	0c00881e 	jal	80022078 <make_process>
800200b4:	00000000 	nop
800200b8:	afc20010 	sw	v0,16(s8)
800200bc:	8fc30010 	lw	v1,16(s8)
800200c0:	2402ffff 	li	v0,-1
800200c4:	10620005 	beq	v1,v0,800200dc <init+0xdc>
800200c8:	00000000 	nop
800200cc:	3c028002 	lui	v0,0x8002
800200d0:	24442708 	addiu	a0,v0,9992
800200d4:	0c008457 	jal	8002115c <DputStr>
800200d8:	00000000 	nop
800200dc:	afc00010 	sw	zero,16(s8)
800200e0:	8fc20010 	lw	v0,16(s8)
800200e4:	28420003 	slti	v0,v0,3
800200e8:	10400055 	beqz	v0,80020240 <init+0x240>
800200ec:	00000000 	nop
800200f0:	3c028002 	lui	v0,0x8002
800200f4:	24442720 	addiu	a0,v0,10016
800200f8:	0c008457 	jal	8002115c <DputStr>
800200fc:	00000000 	nop
80020100:	3c028002 	lui	v0,0x8002
80020104:	24442730 	addiu	a0,v0,10032
80020108:	0c008457 	jal	8002115c <DputStr>
8002010c:	00000000 	nop
80020110:	3c048008 	lui	a0,0x8008
80020114:	8fc30010 	lw	v1,16(s8)
80020118:	00601021 	move	v0,v1
8002011c:	00021100 	sll	v0,v0,0x4
80020120:	00431021 	addu	v0,v0,v1
80020124:	000218c0 	sll	v1,v0,0x3
80020128:	2482818c 	addiu	v0,a0,-32372
8002012c:	00621021 	addu	v0,v1,v0
80020130:	80420000 	lb	v0,0(v0)
80020134:	27c30018 	addiu	v1,s8,24
80020138:	00402021 	move	a0,v0
8002013c:	00602821 	move	a1,v1
80020140:	2406000a 	li	a2,10
80020144:	0c008098 	jal	80020260 <itoa>
80020148:	00000000 	nop
8002014c:	27c20018 	addiu	v0,s8,24
80020150:	00402021 	move	a0,v0
80020154:	0c008457 	jal	8002115c <DputStr>
80020158:	00000000 	nop
8002015c:	3c028002 	lui	v0,0x8002
80020160:	24442738 	addiu	a0,v0,10040
80020164:	0c008457 	jal	8002115c <DputStr>
80020168:	00000000 	nop
8002016c:	3c048008 	lui	a0,0x8008
80020170:	8fc30010 	lw	v1,16(s8)
80020174:	00601021 	move	v0,v1
80020178:	00021100 	sll	v0,v0,0x4
8002017c:	00431021 	addu	v0,v0,v1
80020180:	000218c0 	sll	v1,v0,0x3
80020184:	2482818c 	addiu	v0,a0,-32372
80020188:	00621021 	addu	v0,v1,v0
8002018c:	8c420080 	lw	v0,128(v0)
80020190:	80420000 	lb	v0,0(v0)
80020194:	27c30020 	addiu	v1,s8,32
80020198:	00402021 	move	a0,v0
8002019c:	00602821 	move	a1,v1
800201a0:	2406000a 	li	a2,10
800201a4:	0c008098 	jal	80020260 <itoa>
800201a8:	00000000 	nop
800201ac:	27c20020 	addiu	v0,s8,32
800201b0:	00402021 	move	a0,v0
800201b4:	0c008457 	jal	8002115c <DputStr>
800201b8:	00000000 	nop
800201bc:	3c028002 	lui	v0,0x8002
800201c0:	24442740 	addiu	a0,v0,10048
800201c4:	0c008457 	jal	8002115c <DputStr>
800201c8:	00000000 	nop
800201cc:	3c028008 	lui	v0,0x8008
800201d0:	8fc30010 	lw	v1,16(s8)
800201d4:	2444818c 	addiu	a0,v0,-32372
800201d8:	00601021 	move	v0,v1
800201dc:	00021100 	sll	v0,v0,0x4
800201e0:	00431021 	addu	v0,v0,v1
800201e4:	000210c0 	sll	v0,v0,0x3
800201e8:	00441021 	addu	v0,v0,a0
800201ec:	8c420084 	lw	v0,132(v0)
800201f0:	80420000 	lb	v0,0(v0)
800201f4:	27c30018 	addiu	v1,s8,24
800201f8:	00402021 	move	a0,v0
800201fc:	00602821 	move	a1,v1
80020200:	2406000a 	li	a2,10
80020204:	0c008098 	jal	80020260 <itoa>
80020208:	00000000 	nop
8002020c:	27c20018 	addiu	v0,s8,24
80020210:	00402021 	move	a0,v0
80020214:	0c008457 	jal	8002115c <DputStr>
80020218:	00000000 	nop
8002021c:	3c028002 	lui	v0,0x8002
80020220:	24442748 	addiu	a0,v0,10056
80020224:	0c008457 	jal	8002115c <DputStr>
80020228:	00000000 	nop
8002022c:	8fc20010 	lw	v0,16(s8)
80020230:	24420001 	addiu	v0,v0,1
80020234:	afc20010 	sw	v0,16(s8)
80020238:	08008038 	j	800200e0 <init+0xe0>
8002023c:	00000000 	nop
80020240:	3c028002 	lui	v0,0x8002
80020244:	24442754 	addiu	a0,v0,10068
80020248:	0c008457 	jal	8002115c <DputStr>
8002024c:	00000000 	nop
80020250:	0c00833d 	jal	80020cf4 <init_exc>
80020254:	00000000 	nop
80020258:	08008096 	j	80020258 <init+0x258>
8002025c:	00000000 	nop

80020260 <itoa>:
80020260:	27bdffe0 	addiu	sp,sp,-32
80020264:	afbf001c 	sw	ra,28(sp)
80020268:	afbe0018 	sw	s8,24(sp)
8002026c:	03a0f021 	move	s8,sp
80020270:	afc40020 	sw	a0,32(s8)
80020274:	afc50024 	sw	a1,36(s8)
80020278:	afc60028 	sw	a2,40(s8)
8002027c:	afc00010 	sw	zero,16(s8)
80020280:	8fc20020 	lw	v0,32(s8)
80020284:	afc20014 	sw	v0,20(s8)
80020288:	04410004 	bgez	v0,8002029c <itoa+0x3c>
8002028c:	00000000 	nop
80020290:	8fc20020 	lw	v0,32(s8)
80020294:	00021023 	negu	v0,v0
80020298:	afc20020 	sw	v0,32(s8)
8002029c:	8fc40010 	lw	a0,16(s8)
800202a0:	00801821 	move	v1,a0
800202a4:	8fc20024 	lw	v0,36(s8)
800202a8:	00623021 	addu	a2,v1,v0
800202ac:	3c058002 	lui	a1,0x8002
800202b0:	8fc30020 	lw	v1,32(s8)
800202b4:	8fc20028 	lw	v0,40(s8)
800202b8:	0062001a 	div	zero,v1,v0
800202bc:	14400002 	bnez	v0,800202c8 <itoa+0x68>
800202c0:	00000000 	nop
800202c4:	0007000d 	break	0x7
800202c8:	00001810 	mfhi	v1
800202cc:	24a23000 	addiu	v0,a1,12288
800202d0:	00621021 	addu	v0,v1,v0
800202d4:	90420000 	lbu	v0,0(v0)
800202d8:	a0c20000 	sb	v0,0(a2)
800202dc:	24840001 	addiu	a0,a0,1
800202e0:	afc40010 	sw	a0,16(s8)
800202e4:	8fc30020 	lw	v1,32(s8)
800202e8:	8fc20028 	lw	v0,40(s8)
800202ec:	0062001a 	div	zero,v1,v0
800202f0:	14400002 	bnez	v0,800202fc <itoa+0x9c>
800202f4:	00000000 	nop
800202f8:	0007000d 	break	0x7
800202fc:	00001012 	mflo	v0
80020300:	afc20020 	sw	v0,32(s8)
80020304:	18400003 	blez	v0,80020314 <itoa+0xb4>
80020308:	00000000 	nop
8002030c:	080080a7 	j	8002029c <itoa+0x3c>
80020310:	00000000 	nop
80020314:	8fc20014 	lw	v0,20(s8)
80020318:	04410009 	bgez	v0,80020340 <itoa+0xe0>
8002031c:	00000000 	nop
80020320:	8fc30010 	lw	v1,16(s8)
80020324:	00602021 	move	a0,v1
80020328:	8fc20024 	lw	v0,36(s8)
8002032c:	00822021 	addu	a0,a0,v0
80020330:	2402002d 	li	v0,45
80020334:	a0820000 	sb	v0,0(a0)
80020338:	24630001 	addiu	v1,v1,1
8002033c:	afc30010 	sw	v1,16(s8)
80020340:	8fc30024 	lw	v1,36(s8)
80020344:	8fc20010 	lw	v0,16(s8)
80020348:	00621021 	addu	v0,v1,v0
8002034c:	a0400000 	sb	zero,0(v0)
80020350:	8fc40024 	lw	a0,36(s8)
80020354:	0c0080f4 	jal	800203d0 <strrev>
80020358:	00000000 	nop
8002035c:	03c0e821 	move	sp,s8
80020360:	8fbf001c 	lw	ra,28(sp)
80020364:	8fbe0018 	lw	s8,24(sp)
80020368:	27bd0020 	addiu	sp,sp,32
8002036c:	03e00008 	jr	ra
80020370:	00000000 	nop

80020374 <strlen>:
80020374:	27bdfff0 	addiu	sp,sp,-16
80020378:	afbe0008 	sw	s8,8(sp)
8002037c:	03a0f021 	move	s8,sp
80020380:	afc40010 	sw	a0,16(s8)
80020384:	8fc20010 	lw	v0,16(s8)
80020388:	afc20000 	sw	v0,0(s8)
8002038c:	8fc20000 	lw	v0,0(s8)
80020390:	80420000 	lb	v0,0(v0)
80020394:	10400006 	beqz	v0,800203b0 <strlen+0x3c>
80020398:	00000000 	nop
8002039c:	8fc20000 	lw	v0,0(s8)
800203a0:	24420001 	addiu	v0,v0,1
800203a4:	afc20000 	sw	v0,0(s8)
800203a8:	080080e3 	j	8002038c <strlen+0x18>
800203ac:	00000000 	nop
800203b0:	8fc30000 	lw	v1,0(s8)
800203b4:	8fc20010 	lw	v0,16(s8)
800203b8:	00621023 	subu	v0,v1,v0
800203bc:	03c0e821 	move	sp,s8
800203c0:	8fbe0008 	lw	s8,8(sp)
800203c4:	27bd0010 	addiu	sp,sp,16
800203c8:	03e00008 	jr	ra
800203cc:	00000000 	nop

800203d0 <strrev>:
800203d0:	27bdffd8 	addiu	sp,sp,-40
800203d4:	afbf0024 	sw	ra,36(sp)
800203d8:	afbe0020 	sw	s8,32(sp)
800203dc:	03a0f021 	move	s8,sp
800203e0:	afc40028 	sw	a0,40(s8)
800203e4:	8fc20028 	lw	v0,40(s8)
800203e8:	10400005 	beqz	v0,80020400 <strrev+0x30>
800203ec:	00000000 	nop
800203f0:	8fc20028 	lw	v0,40(s8)
800203f4:	80420000 	lb	v0,0(v0)
800203f8:	14400005 	bnez	v0,80020410 <strrev+0x40>
800203fc:	00000000 	nop
80020400:	8fc20028 	lw	v0,40(s8)
80020404:	afc20018 	sw	v0,24(s8)
80020408:	08008132 	j	800204c8 <strrev+0xf8>
8002040c:	00000000 	nop
80020410:	8fc20028 	lw	v0,40(s8)
80020414:	afc20010 	sw	v0,16(s8)
80020418:	8fc40028 	lw	a0,40(s8)
8002041c:	0c0080dd 	jal	80020374 <strlen>
80020420:	00000000 	nop
80020424:	00401821 	move	v1,v0
80020428:	8fc20028 	lw	v0,40(s8)
8002042c:	00621021 	addu	v0,v1,v0
80020430:	2442ffff 	addiu	v0,v0,-1
80020434:	afc20014 	sw	v0,20(s8)
80020438:	8fc20014 	lw	v0,20(s8)
8002043c:	8fc30010 	lw	v1,16(s8)
80020440:	0062102b 	sltu	v0,v1,v0
80020444:	1040001e 	beqz	v0,800204c0 <strrev+0xf0>
80020448:	00000000 	nop
8002044c:	8fc50010 	lw	a1,16(s8)
80020450:	8fc20010 	lw	v0,16(s8)
80020454:	8fc30014 	lw	v1,20(s8)
80020458:	90440000 	lbu	a0,0(v0)
8002045c:	90620000 	lbu	v0,0(v1)
80020460:	00821026 	xor	v0,a0,v0
80020464:	a0a20000 	sb	v0,0(a1)
80020468:	8fc50014 	lw	a1,20(s8)
8002046c:	8fc20014 	lw	v0,20(s8)
80020470:	8fc30010 	lw	v1,16(s8)
80020474:	90440000 	lbu	a0,0(v0)
80020478:	90620000 	lbu	v0,0(v1)
8002047c:	00821026 	xor	v0,a0,v0
80020480:	a0a20000 	sb	v0,0(a1)
80020484:	8fc50010 	lw	a1,16(s8)
80020488:	8fc20010 	lw	v0,16(s8)
8002048c:	8fc30014 	lw	v1,20(s8)
80020490:	90440000 	lbu	a0,0(v0)
80020494:	90620000 	lbu	v0,0(v1)
80020498:	00821026 	xor	v0,a0,v0
8002049c:	a0a20000 	sb	v0,0(a1)
800204a0:	8fc20010 	lw	v0,16(s8)
800204a4:	24420001 	addiu	v0,v0,1
800204a8:	afc20010 	sw	v0,16(s8)
800204ac:	8fc20014 	lw	v0,20(s8)
800204b0:	2442ffff 	addiu	v0,v0,-1
800204b4:	afc20014 	sw	v0,20(s8)
800204b8:	0800810e 	j	80020438 <strrev+0x68>
800204bc:	00000000 	nop
800204c0:	8fc20028 	lw	v0,40(s8)
800204c4:	afc20018 	sw	v0,24(s8)
800204c8:	8fc20018 	lw	v0,24(s8)
800204cc:	03c0e821 	move	sp,s8
800204d0:	8fbf0024 	lw	ra,36(sp)
800204d4:	8fbe0020 	lw	s8,32(sp)
800204d8:	27bd0028 	addiu	sp,sp,40
800204dc:	03e00008 	jr	ra
800204e0:	00000000 	nop

800204e4 <strcpy>:
800204e4:	27bdfff0 	addiu	sp,sp,-16
800204e8:	afbe0008 	sw	s8,8(sp)
800204ec:	03a0f021 	move	s8,sp
800204f0:	afc40010 	sw	a0,16(s8)
800204f4:	afc50014 	sw	a1,20(s8)
800204f8:	8fc20014 	lw	v0,20(s8)
800204fc:	afc20000 	sw	v0,0(s8)
80020500:	8fc20010 	lw	v0,16(s8)
80020504:	afc20004 	sw	v0,4(s8)
80020508:	8fc20000 	lw	v0,0(s8)
8002050c:	80420000 	lb	v0,0(v0)
80020510:	1040000d 	beqz	v0,80020548 <strcpy+0x64>
80020514:	00000000 	nop
80020518:	8fc30004 	lw	v1,4(s8)
8002051c:	8fc20000 	lw	v0,0(s8)
80020520:	90420000 	lbu	v0,0(v0)
80020524:	a0620000 	sb	v0,0(v1)
80020528:	8fc20000 	lw	v0,0(s8)
8002052c:	24420001 	addiu	v0,v0,1
80020530:	afc20000 	sw	v0,0(s8)
80020534:	8fc20004 	lw	v0,4(s8)
80020538:	24420001 	addiu	v0,v0,1
8002053c:	afc20004 	sw	v0,4(s8)
80020540:	08008142 	j	80020508 <strcpy+0x24>
80020544:	00000000 	nop
80020548:	8fc20004 	lw	v0,4(s8)
8002054c:	a0400000 	sb	zero,0(v0)
80020550:	8fc20010 	lw	v0,16(s8)
80020554:	03c0e821 	move	sp,s8
80020558:	8fbe0008 	lw	s8,8(sp)
8002055c:	27bd0010 	addiu	sp,sp,16
80020560:	03e00008 	jr	ra
80020564:	00000000 	nop

80020568 <strcmp>:
80020568:	27bdfff0 	addiu	sp,sp,-16
8002056c:	afbe0008 	sw	s8,8(sp)
80020570:	03a0f021 	move	s8,sp
80020574:	afc40010 	sw	a0,16(s8)
80020578:	afc50014 	sw	a1,20(s8)
8002057c:	8fc20010 	lw	v0,16(s8)
80020580:	8fc30014 	lw	v1,20(s8)
80020584:	80440000 	lb	a0,0(v0)
80020588:	80620000 	lb	v0,0(v1)
8002058c:	1482000d 	bne	a0,v0,800205c4 <strcmp+0x5c>
80020590:	00000000 	nop
80020594:	8fc20010 	lw	v0,16(s8)
80020598:	80420000 	lb	v0,0(v0)
8002059c:	10400009 	beqz	v0,800205c4 <strcmp+0x5c>
800205a0:	00000000 	nop
800205a4:	8fc20010 	lw	v0,16(s8)
800205a8:	24420001 	addiu	v0,v0,1
800205ac:	afc20010 	sw	v0,16(s8)
800205b0:	8fc20014 	lw	v0,20(s8)
800205b4:	24420001 	addiu	v0,v0,1
800205b8:	afc20014 	sw	v0,20(s8)
800205bc:	0800815f 	j	8002057c <strcmp+0x14>
800205c0:	00000000 	nop
800205c4:	8fc20010 	lw	v0,16(s8)
800205c8:	80420000 	lb	v0,0(v0)
800205cc:	14400009 	bnez	v0,800205f4 <strcmp+0x8c>
800205d0:	00000000 	nop
800205d4:	8fc20014 	lw	v0,20(s8)
800205d8:	80420000 	lb	v0,0(v0)
800205dc:	14400005 	bnez	v0,800205f4 <strcmp+0x8c>
800205e0:	00000000 	nop
800205e4:	24020001 	li	v0,1
800205e8:	afc20000 	sw	v0,0(s8)
800205ec:	0800817e 	j	800205f8 <strcmp+0x90>
800205f0:	00000000 	nop
800205f4:	afc00000 	sw	zero,0(s8)
800205f8:	8fc20000 	lw	v0,0(s8)
800205fc:	03c0e821 	move	sp,s8
80020600:	8fbe0008 	lw	s8,8(sp)
80020604:	27bd0010 	addiu	sp,sp,16
80020608:	03e00008 	jr	ra
8002060c:	00000000 	nop

80020610 <atoi>:
80020610:	27bdffd0 	addiu	sp,sp,-48
80020614:	afbf002c 	sw	ra,44(sp)
80020618:	afbe0028 	sw	s8,40(sp)
8002061c:	03a0f021 	move	s8,sp
80020620:	afc40030 	sw	a0,48(s8)
80020624:	afc00010 	sw	zero,16(s8)
80020628:	afc00014 	sw	zero,20(s8)
8002062c:	8fc20030 	lw	v0,48(s8)
80020630:	80430000 	lb	v1,0(v0)
80020634:	24020020 	li	v0,32
80020638:	10620008 	beq	v1,v0,8002065c <atoi+0x4c>
8002063c:	00000000 	nop
80020640:	8fc20030 	lw	v0,48(s8)
80020644:	80430000 	lb	v1,0(v0)
80020648:	24020009 	li	v0,9
8002064c:	10620003 	beq	v1,v0,8002065c <atoi+0x4c>
80020650:	00000000 	nop
80020654:	0800819c 	j	80020670 <atoi+0x60>
80020658:	00000000 	nop
8002065c:	8fc20030 	lw	v0,48(s8)
80020660:	24420001 	addiu	v0,v0,1
80020664:	afc20030 	sw	v0,48(s8)
80020668:	0800818b 	j	8002062c <atoi+0x1c>
8002066c:	00000000 	nop
80020670:	8fc20030 	lw	v0,48(s8)
80020674:	80430000 	lb	v1,0(v0)
80020678:	2402002d 	li	v0,45
8002067c:	14620008 	bne	v1,v0,800206a0 <atoi+0x90>
80020680:	00000000 	nop
80020684:	24020001 	li	v0,1
80020688:	afc20014 	sw	v0,20(s8)
8002068c:	8fc20030 	lw	v0,48(s8)
80020690:	24420001 	addiu	v0,v0,1
80020694:	afc20030 	sw	v0,48(s8)
80020698:	080081b0 	j	800206c0 <atoi+0xb0>
8002069c:	00000000 	nop
800206a0:	8fc20030 	lw	v0,48(s8)
800206a4:	80430000 	lb	v1,0(v0)
800206a8:	2402002b 	li	v0,43
800206ac:	14620004 	bne	v1,v0,800206c0 <atoi+0xb0>
800206b0:	00000000 	nop
800206b4:	8fc20030 	lw	v0,48(s8)
800206b8:	24420001 	addiu	v0,v0,1
800206bc:	afc20030 	sw	v0,48(s8)
800206c0:	8fc20030 	lw	v0,48(s8)
800206c4:	80420000 	lb	v0,0(v0)
800206c8:	10400020 	beqz	v0,8002074c <atoi+0x13c>
800206cc:	00000000 	nop
800206d0:	8fc20030 	lw	v0,48(s8)
800206d4:	80430000 	lb	v1,0(v0)
800206d8:	3c028002 	lui	v0,0x8002
800206dc:	24442760 	addiu	a0,v0,10080
800206e0:	00602821 	move	a1,v1
800206e4:	0c0081e4 	jal	80020790 <strchr>
800206e8:	00000000 	nop
800206ec:	afc20018 	sw	v0,24(s8)
800206f0:	8fc20018 	lw	v0,24(s8)
800206f4:	14400003 	bnez	v0,80020704 <atoi+0xf4>
800206f8:	00000000 	nop
800206fc:	080081d3 	j	8002074c <atoi+0x13c>
80020700:	00000000 	nop
80020704:	8fc30018 	lw	v1,24(s8)
80020708:	3c028002 	lui	v0,0x8002
8002070c:	24422760 	addiu	v0,v0,10080
80020710:	00621023 	subu	v0,v1,v0
80020714:	afc2001c 	sw	v0,28(s8)
80020718:	8fc30010 	lw	v1,16(s8)
8002071c:	00601021 	move	v0,v1
80020720:	00021080 	sll	v0,v0,0x2
80020724:	00431021 	addu	v0,v0,v1
80020728:	00021840 	sll	v1,v0,0x1
8002072c:	8fc2001c 	lw	v0,28(s8)
80020730:	00621021 	addu	v0,v1,v0
80020734:	afc20010 	sw	v0,16(s8)
80020738:	8fc20030 	lw	v0,48(s8)
8002073c:	24420001 	addiu	v0,v0,1
80020740:	afc20030 	sw	v0,48(s8)
80020744:	080081b0 	j	800206c0 <atoi+0xb0>
80020748:	00000000 	nop
8002074c:	8fc20014 	lw	v0,20(s8)
80020750:	10400006 	beqz	v0,8002076c <atoi+0x15c>
80020754:	00000000 	nop
80020758:	8fc20010 	lw	v0,16(s8)
8002075c:	00021023 	negu	v0,v0
80020760:	afc20020 	sw	v0,32(s8)
80020764:	080081dd 	j	80020774 <atoi+0x164>
80020768:	00000000 	nop
8002076c:	8fc20010 	lw	v0,16(s8)
80020770:	afc20020 	sw	v0,32(s8)
80020774:	8fc20020 	lw	v0,32(s8)
80020778:	03c0e821 	move	sp,s8
8002077c:	8fbf002c 	lw	ra,44(sp)
80020780:	8fbe0028 	lw	s8,40(sp)
80020784:	27bd0030 	addiu	sp,sp,48
80020788:	03e00008 	jr	ra
8002078c:	00000000 	nop

80020790 <strchr>:
80020790:	27bdfff0 	addiu	sp,sp,-16
80020794:	afbe0008 	sw	s8,8(sp)
80020798:	03a0f021 	move	s8,sp
8002079c:	afc40010 	sw	a0,16(s8)
800207a0:	afc50014 	sw	a1,20(s8)
800207a4:	8fc20010 	lw	v0,16(s8)
800207a8:	80420000 	lb	v0,0(v0)
800207ac:	1040000f 	beqz	v0,800207ec <strchr+0x5c>
800207b0:	00000000 	nop
800207b4:	8fc20010 	lw	v0,16(s8)
800207b8:	80430000 	lb	v1,0(v0)
800207bc:	8fc20014 	lw	v0,20(s8)
800207c0:	14620005 	bne	v1,v0,800207d8 <strchr+0x48>
800207c4:	00000000 	nop
800207c8:	8fc20010 	lw	v0,16(s8)
800207cc:	afc20000 	sw	v0,0(s8)
800207d0:	08008205 	j	80020814 <strchr+0x84>
800207d4:	00000000 	nop
800207d8:	8fc20010 	lw	v0,16(s8)
800207dc:	24420001 	addiu	v0,v0,1
800207e0:	afc20010 	sw	v0,16(s8)
800207e4:	080081e9 	j	800207a4 <strchr+0x14>
800207e8:	00000000 	nop
800207ec:	8fc20010 	lw	v0,16(s8)
800207f0:	80430000 	lb	v1,0(v0)
800207f4:	8fc20014 	lw	v0,20(s8)
800207f8:	14620005 	bne	v1,v0,80020810 <strchr+0x80>
800207fc:	00000000 	nop
80020800:	8fc20010 	lw	v0,16(s8)
80020804:	afc20000 	sw	v0,0(s8)
80020808:	08008205 	j	80020814 <strchr+0x84>
8002080c:	00000000 	nop
80020810:	afc00000 	sw	zero,0(s8)
80020814:	8fc20000 	lw	v0,0(s8)
80020818:	03c0e821 	move	sp,s8
8002081c:	8fbe0008 	lw	s8,8(sp)
80020820:	27bd0010 	addiu	sp,sp,16
80020824:	03e00008 	jr	ra
80020828:	00000000 	nop

8002082c <kdebug_putc>:
8002082c:	27bdfff8 	addiu	sp,sp,-8
80020830:	afbe0000 	sw	s8,0(sp)
80020834:	03a0f021 	move	s8,sp
80020838:	00801021 	move	v0,a0
8002083c:	a3c20008 	sb	v0,8(s8)
80020840:	3c028002 	lui	v0,0x8002
80020844:	8c422774 	lw	v0,10100(v0)
80020848:	90420005 	lbu	v0,5(v0)
8002084c:	30420020 	andi	v0,v0,0x20
80020850:	304200ff 	andi	v0,v0,0xff
80020854:	14400003 	bnez	v0,80020864 <kdebug_putc+0x38>
80020858:	00000000 	nop
8002085c:	08008210 	j	80020840 <kdebug_putc+0x14>
80020860:	00000000 	nop
80020864:	3c028002 	lui	v0,0x8002
80020868:	8c432774 	lw	v1,10100(v0)
8002086c:	93c20008 	lbu	v0,8(s8)
80020870:	a0620000 	sb	v0,0(v1)
80020874:	03c0e821 	move	sp,s8
80020878:	8fbe0000 	lw	s8,0(sp)
8002087c:	27bd0008 	addiu	sp,sp,8
80020880:	03e00008 	jr	ra
80020884:	00000000 	nop

80020888 <kdebug_print>:
80020888:	27bdffe8 	addiu	sp,sp,-24
8002088c:	afbf0014 	sw	ra,20(sp)
80020890:	afbe0010 	sw	s8,16(sp)
80020894:	03a0f021 	move	s8,sp
80020898:	afc40018 	sw	a0,24(s8)
8002089c:	8fc20018 	lw	v0,24(s8)
800208a0:	80420000 	lb	v0,0(v0)
800208a4:	10400013 	beqz	v0,800208f4 <kdebug_print+0x6c>
800208a8:	00000000 	nop
800208ac:	8fc20018 	lw	v0,24(s8)
800208b0:	80420000 	lb	v0,0(v0)
800208b4:	00402021 	move	a0,v0
800208b8:	0c00820b 	jal	8002082c <kdebug_putc>
800208bc:	00000000 	nop
800208c0:	8fc20018 	lw	v0,24(s8)
800208c4:	80430000 	lb	v1,0(v0)
800208c8:	2402000a 	li	v0,10
800208cc:	14620004 	bne	v1,v0,800208e0 <kdebug_print+0x58>
800208d0:	00000000 	nop
800208d4:	2404000d 	li	a0,13
800208d8:	0c00820b 	jal	8002082c <kdebug_putc>
800208dc:	00000000 	nop
800208e0:	8fc20018 	lw	v0,24(s8)
800208e4:	24420001 	addiu	v0,v0,1
800208e8:	afc20018 	sw	v0,24(s8)
800208ec:	08008227 	j	8002089c <kdebug_print+0x14>
800208f0:	00000000 	nop
800208f4:	03c0e821 	move	sp,s8
800208f8:	8fbf0014 	lw	ra,20(sp)
800208fc:	8fbe0010 	lw	s8,16(sp)
80020900:	27bd0018 	addiu	sp,sp,24
80020904:	03e00008 	jr	ra
80020908:	00000000 	nop

8002090c <kdebug_println>:
8002090c:	27bdffe8 	addiu	sp,sp,-24
80020910:	afbf0014 	sw	ra,20(sp)
80020914:	afbe0010 	sw	s8,16(sp)
80020918:	03a0f021 	move	s8,sp
8002091c:	afc40018 	sw	a0,24(s8)
80020920:	8fc40018 	lw	a0,24(s8)
80020924:	0c008222 	jal	80020888 <kdebug_print>
80020928:	00000000 	nop
8002092c:	2404000a 	li	a0,10
80020930:	0c00820b 	jal	8002082c <kdebug_putc>
80020934:	00000000 	nop
80020938:	2404000d 	li	a0,13
8002093c:	0c00820b 	jal	8002082c <kdebug_putc>
80020940:	00000000 	nop
80020944:	03c0e821 	move	sp,s8
80020948:	8fbf0014 	lw	ra,20(sp)
8002094c:	8fbe0010 	lw	s8,16(sp)
80020950:	27bd0018 	addiu	sp,sp,24
80020954:	03e00008 	jr	ra
80020958:	00000000 	nop

8002095c <kdebug_printint>:
8002095c:	27bdffe8 	addiu	sp,sp,-24
80020960:	afbf0014 	sw	ra,20(sp)
80020964:	afbe0010 	sw	s8,16(sp)
80020968:	03a0f021 	move	s8,sp
8002096c:	afc40018 	sw	a0,24(s8)
80020970:	8fc20018 	lw	v0,24(s8)
80020974:	2842000a 	slti	v0,v0,10
80020978:	1040000a 	beqz	v0,800209a4 <kdebug_printint+0x48>
8002097c:	00000000 	nop
80020980:	8fc20018 	lw	v0,24(s8)
80020984:	24420030 	addiu	v0,v0,48
80020988:	00021600 	sll	v0,v0,0x18
8002098c:	00021603 	sra	v0,v0,0x18
80020990:	00402021 	move	a0,v0
80020994:	0c00820b 	jal	8002082c <kdebug_putc>
80020998:	00000000 	nop
8002099c:	08008287 	j	80020a1c <kdebug_printint+0xc0>
800209a0:	00000000 	nop
800209a4:	8fc40018 	lw	a0,24(s8)
800209a8:	3c026666 	lui	v0,0x6666
800209ac:	34426667 	ori	v0,v0,0x6667
800209b0:	00820018 	mult	a0,v0
800209b4:	00001010 	mfhi	v0
800209b8:	00021883 	sra	v1,v0,0x2
800209bc:	000417c3 	sra	v0,a0,0x1f
800209c0:	00621023 	subu	v0,v1,v0
800209c4:	00402021 	move	a0,v0
800209c8:	0c008257 	jal	8002095c <kdebug_printint>
800209cc:	00000000 	nop
800209d0:	8fc40018 	lw	a0,24(s8)
800209d4:	3c026666 	lui	v0,0x6666
800209d8:	34426667 	ori	v0,v0,0x6667
800209dc:	00820018 	mult	a0,v0
800209e0:	00001010 	mfhi	v0
800209e4:	00021883 	sra	v1,v0,0x2
800209e8:	000417c3 	sra	v0,a0,0x1f
800209ec:	00621823 	subu	v1,v1,v0
800209f0:	00601021 	move	v0,v1
800209f4:	00021080 	sll	v0,v0,0x2
800209f8:	00431021 	addu	v0,v0,v1
800209fc:	00021040 	sll	v0,v0,0x1
80020a00:	00821023 	subu	v0,a0,v0
80020a04:	24420030 	addiu	v0,v0,48
80020a08:	00021600 	sll	v0,v0,0x18
80020a0c:	00021603 	sra	v0,v0,0x18
80020a10:	00402021 	move	a0,v0
80020a14:	0c00820b 	jal	8002082c <kdebug_putc>
80020a18:	00000000 	nop
80020a1c:	03c0e821 	move	sp,s8
80020a20:	8fbf0014 	lw	ra,20(sp)
80020a24:	8fbe0010 	lw	s8,16(sp)
80020a28:	27bd0018 	addiu	sp,sp,24
80020a2c:	03e00008 	jr	ra
80020a30:	00000000 	nop

80020a34 <kdebug_assert_at>:
80020a34:	27bdffe8 	addiu	sp,sp,-24
80020a38:	afbf0014 	sw	ra,20(sp)
80020a3c:	afbe0010 	sw	s8,16(sp)
80020a40:	03a0f021 	move	s8,sp
80020a44:	afc40018 	sw	a0,24(s8)
80020a48:	afc5001c 	sw	a1,28(s8)
80020a4c:	afc60020 	sw	a2,32(s8)
80020a50:	8fc20018 	lw	v0,24(s8)
80020a54:	14400017 	bnez	v0,80020ab4 <kdebug_assert_at+0x80>
80020a58:	00000000 	nop
80020a5c:	3c028002 	lui	v0,0x8002
80020a60:	2444277c 	addiu	a0,v0,10108
80020a64:	0c008222 	jal	80020888 <kdebug_print>
80020a68:	00000000 	nop
80020a6c:	8fc40020 	lw	a0,32(s8)
80020a70:	0c008257 	jal	8002095c <kdebug_printint>
80020a74:	00000000 	nop
80020a78:	3c028002 	lui	v0,0x8002
80020a7c:	244427a0 	addiu	a0,v0,10144
80020a80:	0c008222 	jal	80020888 <kdebug_print>
80020a84:	00000000 	nop
80020a88:	8fc4001c 	lw	a0,28(s8)
80020a8c:	0c008222 	jal	80020888 <kdebug_print>
80020a90:	00000000 	nop
80020a94:	3c028002 	lui	v0,0x8002
80020a98:	244427ac 	addiu	a0,v0,10156
80020a9c:	0c008243 	jal	8002090c <kdebug_println>
80020aa0:	00000000 	nop
80020aa4:	0c00892a 	jal	800224a8 <kdebug_magic_break>
80020aa8:	00000000 	nop
80020aac:	080082ab 	j	80020aac <kdebug_assert_at+0x78>
80020ab0:	00000000 	nop
80020ab4:	03c0e821 	move	sp,s8
80020ab8:	8fbf0014 	lw	ra,20(sp)
80020abc:	8fbe0010 	lw	s8,16(sp)
80020ac0:	27bd0018 	addiu	sp,sp,24
80020ac4:	03e00008 	jr	ra
80020ac8:	00000000 	nop

80020acc <hello>:
80020acc:	27bdffe0 	addiu	sp,sp,-32
80020ad0:	afbf001c 	sw	ra,28(sp)
80020ad4:	afbe0018 	sw	s8,24(sp)
80020ad8:	03a0f021 	move	s8,sp
80020adc:	afc00010 	sw	zero,16(s8)
80020ae0:	3c028002 	lui	v0,0x8002
80020ae4:	244427c0 	addiu	a0,v0,10176
80020ae8:	0c0083ef 	jal	80020fbc <putStr>
80020aec:	00000000 	nop
80020af0:	8fc20010 	lw	v0,16(s8)
80020af4:	284207d0 	slti	v0,v0,2000
80020af8:	10400018 	beqz	v0,80020b5c <hello+0x90>
80020afc:	00000000 	nop
80020b00:	8fc40010 	lw	a0,16(s8)
80020b04:	3c021062 	lui	v0,0x1062
80020b08:	34424dd3 	ori	v0,v0,0x4dd3
80020b0c:	00820018 	mult	a0,v0
80020b10:	00001010 	mfhi	v0
80020b14:	00021983 	sra	v1,v0,0x6
80020b18:	000417c3 	sra	v0,a0,0x1f
80020b1c:	00621823 	subu	v1,v1,v0
80020b20:	00601021 	move	v0,v1
80020b24:	00021140 	sll	v0,v0,0x5
80020b28:	00431023 	subu	v0,v0,v1
80020b2c:	00021080 	sll	v0,v0,0x2
80020b30:	00431021 	addu	v0,v0,v1
80020b34:	000210c0 	sll	v0,v0,0x3
80020b38:	00821023 	subu	v0,a0,v0
80020b3c:	1440ffec 	bnez	v0,80020af0 <hello+0x24>
80020b40:	00000000 	nop
80020b44:	3c028002 	lui	v0,0x8002
80020b48:	244427d0 	addiu	a0,v0,10192
80020b4c:	0c0083ef 	jal	80020fbc <putStr>
80020b50:	00000000 	nop
80020b54:	080082bc 	j	80020af0 <hello+0x24>
80020b58:	00000000 	nop
80020b5c:	3c028002 	lui	v0,0x8002
80020b60:	244427e0 	addiu	a0,v0,10208
80020b64:	0c0083ef 	jal	80020fbc <putStr>
80020b68:	00000000 	nop
80020b6c:	03c0e821 	move	sp,s8
80020b70:	8fbf001c 	lw	ra,28(sp)
80020b74:	8fbe0018 	lw	s8,24(sp)
80020b78:	27bd0020 	addiu	sp,sp,32
80020b7c:	03e00008 	jr	ra
80020b80:	00000000 	nop

80020b84 <goodbye>:
80020b84:	27bdffe0 	addiu	sp,sp,-32
80020b88:	afbf001c 	sw	ra,28(sp)
80020b8c:	afbe0018 	sw	s8,24(sp)
80020b90:	03a0f021 	move	s8,sp
80020b94:	afc00010 	sw	zero,16(s8)
80020b98:	3c028002 	lui	v0,0x8002
80020b9c:	244427f4 	addiu	a0,v0,10228
80020ba0:	0c0083ef 	jal	80020fbc <putStr>
80020ba4:	00000000 	nop
80020ba8:	8fc20010 	lw	v0,16(s8)
80020bac:	284207d0 	slti	v0,v0,2000
80020bb0:	10400018 	beqz	v0,80020c14 <goodbye+0x90>
80020bb4:	00000000 	nop
80020bb8:	8fc40010 	lw	a0,16(s8)
80020bbc:	3c021062 	lui	v0,0x1062
80020bc0:	34424dd3 	ori	v0,v0,0x4dd3
80020bc4:	00820018 	mult	a0,v0
80020bc8:	00001010 	mfhi	v0
80020bcc:	00021983 	sra	v1,v0,0x6
80020bd0:	000417c3 	sra	v0,a0,0x1f
80020bd4:	00621823 	subu	v1,v1,v0
80020bd8:	00601021 	move	v0,v1
80020bdc:	00021140 	sll	v0,v0,0x5
80020be0:	00431023 	subu	v0,v0,v1
80020be4:	00021080 	sll	v0,v0,0x2
80020be8:	00431021 	addu	v0,v0,v1
80020bec:	000210c0 	sll	v0,v0,0x3
80020bf0:	00821023 	subu	v0,a0,v0
80020bf4:	1440ffec 	bnez	v0,80020ba8 <goodbye+0x24>
80020bf8:	00000000 	nop
80020bfc:	3c028002 	lui	v0,0x8002
80020c00:	24442804 	addiu	a0,v0,10244
80020c04:	0c0083ef 	jal	80020fbc <putStr>
80020c08:	00000000 	nop
80020c0c:	080082ea 	j	80020ba8 <goodbye+0x24>
80020c10:	00000000 	nop
80020c14:	3c028002 	lui	v0,0x8002
80020c18:	24442814 	addiu	a0,v0,10260
80020c1c:	0c0083ef 	jal	80020fbc <putStr>
80020c20:	00000000 	nop
80020c24:	03c0e821 	move	sp,s8
80020c28:	8fbf001c 	lw	ra,28(sp)
80020c2c:	8fbe0018 	lw	s8,24(sp)
80020c30:	27bd0020 	addiu	sp,sp,32
80020c34:	03e00008 	jr	ra
80020c38:	00000000 	nop

80020c3c <smile>:
80020c3c:	27bdffe0 	addiu	sp,sp,-32
80020c40:	afbf001c 	sw	ra,28(sp)
80020c44:	afbe0018 	sw	s8,24(sp)
80020c48:	03a0f021 	move	s8,sp
80020c4c:	afc00010 	sw	zero,16(s8)
80020c50:	3c028002 	lui	v0,0x8002
80020c54:	24442828 	addiu	a0,v0,10280
80020c58:	0c0083ef 	jal	80020fbc <putStr>
80020c5c:	00000000 	nop
80020c60:	8fc20010 	lw	v0,16(s8)
80020c64:	284207d0 	slti	v0,v0,2000
80020c68:	10400018 	beqz	v0,80020ccc <smile+0x90>
80020c6c:	00000000 	nop
80020c70:	8fc40010 	lw	a0,16(s8)
80020c74:	3c021062 	lui	v0,0x1062
80020c78:	34424dd3 	ori	v0,v0,0x4dd3
80020c7c:	00820018 	mult	a0,v0
80020c80:	00001010 	mfhi	v0
80020c84:	00021983 	sra	v1,v0,0x6
80020c88:	000417c3 	sra	v0,a0,0x1f
80020c8c:	00621823 	subu	v1,v1,v0
80020c90:	00601021 	move	v0,v1
80020c94:	00021140 	sll	v0,v0,0x5
80020c98:	00431023 	subu	v0,v0,v1
80020c9c:	00021080 	sll	v0,v0,0x2
80020ca0:	00431021 	addu	v0,v0,v1
80020ca4:	000210c0 	sll	v0,v0,0x3
80020ca8:	00821023 	subu	v0,a0,v0
80020cac:	1440ffec 	bnez	v0,80020c60 <smile+0x24>
80020cb0:	00000000 	nop
80020cb4:	3c028002 	lui	v0,0x8002
80020cb8:	24442830 	addiu	a0,v0,10288
80020cbc:	0c0083ef 	jal	80020fbc <putStr>
80020cc0:	00000000 	nop
80020cc4:	08008318 	j	80020c60 <smile+0x24>
80020cc8:	00000000 	nop
80020ccc:	3c028002 	lui	v0,0x8002
80020cd0:	24442838 	addiu	a0,v0,10296
80020cd4:	0c0083ef 	jal	80020fbc <putStr>
80020cd8:	00000000 	nop
80020cdc:	03c0e821 	move	sp,s8
80020ce0:	8fbf001c 	lw	ra,28(sp)
80020ce4:	8fbe0018 	lw	s8,24(sp)
80020ce8:	27bd0020 	addiu	sp,sp,32
80020cec:	03e00008 	jr	ra
80020cf0:	00000000 	nop

80020cf4 <init_exc>:
80020cf4:	27bdffe0 	addiu	sp,sp,-32
80020cf8:	afbf001c 	sw	ra,28(sp)
80020cfc:	afbe0018 	sw	s8,24(sp)
80020d00:	03a0f021 	move	s8,sp
80020d04:	3c028007 	lui	v0,0x8007
80020d08:	244430b8 	addiu	a0,v0,12472
80020d0c:	0c008922 	jal	80022488 <kset_registers>
80020d10:	00000000 	nop
80020d14:	3c028002 	lui	v0,0x8002
80020d18:	8c432848 	lw	v1,10312(v0)
80020d1c:	00601021 	move	v0,v1
80020d20:	00021040 	sll	v0,v0,0x1
80020d24:	00431021 	addu	v0,v0,v1
80020d28:	000210c0 	sll	v0,v0,0x3
80020d2c:	00431021 	addu	v0,v0,v1
80020d30:	00021080 	sll	v0,v0,0x2
80020d34:	00402021 	move	a0,v0
80020d38:	0c00891e 	jal	80022478 <kload_timer>
80020d3c:	00000000 	nop
80020d40:	2402ffff 	li	v0,-1
80020d44:	afc20010 	sw	v0,16(s8)
80020d48:	8fc30010 	lw	v1,16(s8)
80020d4c:	2402fffd 	li	v0,-3
80020d50:	00621024 	and	v0,v1,v0
80020d54:	afc20010 	sw	v0,16(s8)
80020d58:	8fc30010 	lw	v1,16(s8)
80020d5c:	2402fffb 	li	v0,-5
80020d60:	00621024 	and	v0,v1,v0
80020d64:	afc20010 	sw	v0,16(s8)
80020d68:	8fc30010 	lw	v1,16(s8)
80020d6c:	2402ffef 	li	v0,-17
80020d70:	00621024 	and	v0,v1,v0
80020d74:	afc20010 	sw	v0,16(s8)
80020d78:	8fc30010 	lw	v1,16(s8)
80020d7c:	3c02ffbf 	lui	v0,0xffbf
80020d80:	3442ffff 	ori	v0,v0,0xffff
80020d84:	00621024 	and	v0,v1,v0
80020d88:	afc20010 	sw	v0,16(s8)
80020d8c:	afc00014 	sw	zero,20(s8)
80020d90:	8fc20014 	lw	v0,20(s8)
80020d94:	34420001 	ori	v0,v0,0x1
80020d98:	afc20014 	sw	v0,20(s8)
80020d9c:	2402ff80 	li	v0,-128
80020da0:	a3c20015 	sb	v0,21(s8)
80020da4:	8fc30014 	lw	v1,20(s8)
80020da8:	3c021000 	lui	v0,0x1000
80020dac:	00621025 	or	v0,v1,v0
80020db0:	afc20014 	sw	v0,20(s8)
80020db4:	8fc40010 	lw	a0,16(s8)
80020db8:	8fc50014 	lw	a1,20(s8)
80020dbc:	0c00890b 	jal	8002242c <kset_sr>
80020dc0:	00000000 	nop
80020dc4:	03c0e821 	move	sp,s8
80020dc8:	8fbf001c 	lw	ra,28(sp)
80020dcc:	8fbe0018 	lw	s8,24(sp)
80020dd0:	27bd0020 	addiu	sp,sp,32
80020dd4:	03e00008 	jr	ra
80020dd8:	00000000 	nop

80020ddc <kexception>:
80020ddc:	27bdffe0 	addiu	sp,sp,-32
80020de0:	afbf001c 	sw	ra,28(sp)
80020de4:	afbe0018 	sw	s8,24(sp)
80020de8:	03a0f021 	move	s8,sp
80020dec:	0c00891a 	jal	80022468 <kget_cause>
80020df0:	00000000 	nop
80020df4:	afc20014 	sw	v0,20(s8)
80020df8:	93c20015 	lbu	v0,21(s8)
80020dfc:	30420004 	andi	v0,v0,0x4
80020e00:	10400005 	beqz	v0,80020e18 <kexception+0x3c>
80020e04:	00000000 	nop
80020e08:	0c0085c5 	jal	80021714 <tty_interrupt>
80020e0c:	00000000 	nop
80020e10:	080083a8 	j	80020ea0 <kexception+0xc4>
80020e14:	00000000 	nop
80020e18:	8fc20014 	lw	v0,20(s8)
80020e1c:	00021082 	srl	v0,v0,0x2
80020e20:	3042001f 	andi	v0,v0,0x1f
80020e24:	14400009 	bnez	v0,80020e4c <kexception+0x70>
80020e28:	00000000 	nop
80020e2c:	0c008852 	jal	80022148 <S_schedule>
80020e30:	00000000 	nop
80020e34:	3c028002 	lui	v0,0x8002
80020e38:	8c442848 	lw	a0,10312(v0)
80020e3c:	0c00891e 	jal	80022478 <kload_timer>
80020e40:	00000000 	nop
80020e44:	080083a8 	j	80020ea0 <kexception+0xc4>
80020e48:	00000000 	nop
80020e4c:	8fc20014 	lw	v0,20(s8)
80020e50:	00021082 	srl	v0,v0,0x2
80020e54:	3043001f 	andi	v1,v0,0x1f
80020e58:	24020008 	li	v0,8
80020e5c:	14620010 	bne	v1,v0,80020ea0 <kexception+0xc4>
80020e60:	00000000 	nop
80020e64:	0c008926 	jal	80022498 <kget_registers>
80020e68:	00000000 	nop
80020e6c:	afc20010 	sw	v0,16(s8)
80020e70:	8fc30010 	lw	v1,16(s8)
80020e74:	8fc20010 	lw	v0,16(s8)
80020e78:	8c420070 	lw	v0,112(v0)
80020e7c:	24420004 	addiu	v0,v0,4
80020e80:	ac620070 	sw	v0,112(v1)
80020e84:	8fc40010 	lw	a0,16(s8)
80020e88:	0c008997 	jal	8002265c <ksyscall_handler>
80020e8c:	00000000 	nop
80020e90:	2404ff9f 	li	a0,-97
80020e94:	00002821 	move	a1,zero
80020e98:	0c008914 	jal	80022450 <kset_cause>
80020e9c:	00000000 	nop
80020ea0:	03c0e821 	move	sp,s8
80020ea4:	8fbf001c 	lw	ra,28(sp)
80020ea8:	8fbe0018 	lw	s8,24(sp)
80020eac:	27bd0020 	addiu	sp,sp,32
80020eb0:	03e00008 	jr	ra
80020eb4:	00000000 	nop

80020eb8 <IO_device>:
80020eb8:	27bdfff0 	addiu	sp,sp,-16
80020ebc:	afbe0008 	sw	s8,8(sp)
80020ec0:	03a0f021 	move	s8,sp
80020ec4:	afc40010 	sw	a0,16(s8)
80020ec8:	afc50014 	sw	a1,20(s8)
80020ecc:	00c01021 	move	v0,a2
80020ed0:	a7c20018 	sh	v0,24(s8)
80020ed4:	87c30012 	lh	v1,18(s8)
80020ed8:	2402ffff 	li	v0,-1
80020edc:	14620007 	bne	v1,v0,80020efc <IO_device+0x44>
80020ee0:	00000000 	nop
80020ee4:	97c20018 	lhu	v0,24(s8)
80020ee8:	a7c20012 	sh	v0,18(s8)
80020eec:	24020001 	li	v0,1
80020ef0:	afc20000 	sw	v0,0(s8)
80020ef4:	080083c0 	j	80020f00 <IO_device+0x48>
80020ef8:	00000000 	nop
80020efc:	afc00000 	sw	zero,0(s8)
80020f00:	8fc20000 	lw	v0,0(s8)
80020f04:	03c0e821 	move	sp,s8
80020f08:	8fbe0008 	lw	s8,8(sp)
80020f0c:	27bd0010 	addiu	sp,sp,16
80020f10:	03e00008 	jr	ra
80020f14:	00000000 	nop

80020f18 <putMalta>:
80020f18:	27bdffe8 	addiu	sp,sp,-24
80020f1c:	afbf0014 	sw	ra,20(sp)
80020f20:	afbe0010 	sw	s8,16(sp)
80020f24:	03a0f021 	move	s8,sp
80020f28:	afc40018 	sw	a0,24(s8)
80020f2c:	8fc40018 	lw	a0,24(s8)
80020f30:	0c008988 	jal	80022620 <syscall_putMalta>
80020f34:	00000000 	nop
80020f38:	03c0e821 	move	sp,s8
80020f3c:	8fbf0014 	lw	ra,20(sp)
80020f40:	8fbe0010 	lw	s8,16(sp)
80020f44:	27bd0018 	addiu	sp,sp,24
80020f48:	03e00008 	jr	ra
80020f4c:	00000000 	nop

80020f50 <putCh>:
80020f50:	27bdffe8 	addiu	sp,sp,-24
80020f54:	afbf0014 	sw	ra,20(sp)
80020f58:	afbe0010 	sw	s8,16(sp)
80020f5c:	03a0f021 	move	s8,sp
80020f60:	00801021 	move	v0,a0
80020f64:	a3c20018 	sb	v0,24(s8)
80020f68:	83c30018 	lb	v1,24(s8)
80020f6c:	3c028007 	lui	v0,0x8007
80020f70:	24443168 	addiu	a0,v0,12648
80020f74:	00602821 	move	a1,v1
80020f78:	0c008992 	jal	80022648 <syscall_putC>
80020f7c:	00000000 	nop
80020f80:	83c30018 	lb	v1,24(s8)
80020f84:	2402000a 	li	v0,10
80020f88:	14620006 	bne	v1,v0,80020fa4 <putCh+0x54>
80020f8c:	00000000 	nop
80020f90:	3c028007 	lui	v0,0x8007
80020f94:	24443168 	addiu	a0,v0,12648
80020f98:	2405000d 	li	a1,13
80020f9c:	0c008992 	jal	80022648 <syscall_putC>
80020fa0:	00000000 	nop
80020fa4:	03c0e821 	move	sp,s8
80020fa8:	8fbf0014 	lw	ra,20(sp)
80020fac:	8fbe0010 	lw	s8,16(sp)
80020fb0:	27bd0018 	addiu	sp,sp,24
80020fb4:	03e00008 	jr	ra
80020fb8:	00000000 	nop

80020fbc <putStr>:
80020fbc:	27bdffe8 	addiu	sp,sp,-24
80020fc0:	afbf0014 	sw	ra,20(sp)
80020fc4:	afbe0010 	sw	s8,16(sp)
80020fc8:	03a0f021 	move	s8,sp
80020fcc:	afc40018 	sw	a0,24(s8)
80020fd0:	3c028007 	lui	v0,0x8007
80020fd4:	24443168 	addiu	a0,v0,12648
80020fd8:	8fc50018 	lw	a1,24(s8)
80020fdc:	0c00898d 	jal	80022634 <syscall_putStr>
80020fe0:	00000000 	nop
80020fe4:	03c0e821 	move	sp,s8
80020fe8:	8fbf0014 	lw	ra,20(sp)
80020fec:	8fbe0010 	lw	s8,16(sp)
80020ff0:	27bd0018 	addiu	sp,sp,24
80020ff4:	03e00008 	jr	ra
80020ff8:	00000000 	nop

80020ffc <DputMalta>:
80020ffc:	27bdfff0 	addiu	sp,sp,-16
80021000:	afbe0008 	sw	s8,8(sp)
80021004:	03a0f021 	move	s8,sp
80021008:	afc40010 	sw	a0,16(s8)
8002100c:	3c028002 	lui	v0,0x8002
80021010:	8c432860 	lw	v1,10336(v0)
80021014:	2402ffff 	li	v0,-1
80021018:	a0620008 	sb	v0,8(v1)
8002101c:	24020007 	li	v0,7
80021020:	afc20000 	sw	v0,0(s8)
80021024:	8fc20000 	lw	v0,0(s8)
80021028:	0440001f 	bltz	v0,800210a8 <DputMalta+0xac>
8002102c:	00000000 	nop
80021030:	3c028002 	lui	v0,0x8002
80021034:	8c432860 	lw	v1,10336(v0)
80021038:	8fc20000 	lw	v0,0(s8)
8002103c:	000210c0 	sll	v0,v0,0x3
80021040:	00432821 	addu	a1,v0,v1
80021044:	8fc40010 	lw	a0,16(s8)
80021048:	3c02cccc 	lui	v0,0xcccc
8002104c:	3442cccd 	ori	v0,v0,0xcccd
80021050:	00820019 	multu	a0,v0
80021054:	00001010 	mfhi	v0
80021058:	000218c2 	srl	v1,v0,0x3
8002105c:	00601021 	move	v0,v1
80021060:	00021080 	sll	v0,v0,0x2
80021064:	00431021 	addu	v0,v0,v1
80021068:	00021040 	sll	v0,v0,0x1
8002106c:	00821023 	subu	v0,a0,v0
80021070:	24420030 	addiu	v0,v0,48
80021074:	a0a20018 	sb	v0,24(a1)
80021078:	8fc30010 	lw	v1,16(s8)
8002107c:	3c02cccc 	lui	v0,0xcccc
80021080:	3442cccd 	ori	v0,v0,0xcccd
80021084:	00620019 	multu	v1,v0
80021088:	00001010 	mfhi	v0
8002108c:	000210c2 	srl	v0,v0,0x3
80021090:	afc20010 	sw	v0,16(s8)
80021094:	8fc20000 	lw	v0,0(s8)
80021098:	2442ffff 	addiu	v0,v0,-1
8002109c:	afc20000 	sw	v0,0(s8)
800210a0:	08008409 	j	80021024 <DputMalta+0x28>
800210a4:	00000000 	nop
800210a8:	03c0e821 	move	sp,s8
800210ac:	8fbe0008 	lw	s8,8(sp)
800210b0:	27bd0010 	addiu	sp,sp,16
800210b4:	03e00008 	jr	ra
800210b8:	00000000 	nop

800210bc <DputCh>:
800210bc:	27bdfff8 	addiu	sp,sp,-8
800210c0:	afbe0000 	sw	s8,0(sp)
800210c4:	03a0f021 	move	s8,sp
800210c8:	00801021 	move	v0,a0
800210cc:	a3c20008 	sb	v0,8(s8)
800210d0:	3c028002 	lui	v0,0x8002
800210d4:	8c42285c 	lw	v0,10332(v0)
800210d8:	90420005 	lbu	v0,5(v0)
800210dc:	30420020 	andi	v0,v0,0x20
800210e0:	304200ff 	andi	v0,v0,0xff
800210e4:	14400003 	bnez	v0,800210f4 <DputCh+0x38>
800210e8:	00000000 	nop
800210ec:	08008434 	j	800210d0 <DputCh+0x14>
800210f0:	00000000 	nop
800210f4:	3c028002 	lui	v0,0x8002
800210f8:	8c43285c 	lw	v1,10332(v0)
800210fc:	93c20008 	lbu	v0,8(s8)
80021100:	a0620000 	sb	v0,0(v1)
80021104:	83c30008 	lb	v1,8(s8)
80021108:	2402000a 	li	v0,10
8002110c:	1462000e 	bne	v1,v0,80021148 <DputCh+0x8c>
80021110:	00000000 	nop
80021114:	3c028002 	lui	v0,0x8002
80021118:	8c42285c 	lw	v0,10332(v0)
8002111c:	90420005 	lbu	v0,5(v0)
80021120:	30420020 	andi	v0,v0,0x20
80021124:	304200ff 	andi	v0,v0,0xff
80021128:	14400003 	bnez	v0,80021138 <DputCh+0x7c>
8002112c:	00000000 	nop
80021130:	08008445 	j	80021114 <DputCh+0x58>
80021134:	00000000 	nop
80021138:	3c028002 	lui	v0,0x8002
8002113c:	8c43285c 	lw	v1,10332(v0)
80021140:	2402000d 	li	v0,13
80021144:	a0620000 	sb	v0,0(v1)
80021148:	03c0e821 	move	sp,s8
8002114c:	8fbe0000 	lw	s8,0(sp)
80021150:	27bd0008 	addiu	sp,sp,8
80021154:	03e00008 	jr	ra
80021158:	00000000 	nop

8002115c <DputStr>:
8002115c:	27bdffe8 	addiu	sp,sp,-24
80021160:	afbf0014 	sw	ra,20(sp)
80021164:	afbe0010 	sw	s8,16(sp)
80021168:	03a0f021 	move	s8,sp
8002116c:	afc40018 	sw	a0,24(s8)
80021170:	8fc20018 	lw	v0,24(s8)
80021174:	80420000 	lb	v0,0(v0)
80021178:	1040000b 	beqz	v0,800211a8 <DputStr+0x4c>
8002117c:	00000000 	nop
80021180:	8fc20018 	lw	v0,24(s8)
80021184:	80420000 	lb	v0,0(v0)
80021188:	00402021 	move	a0,v0
8002118c:	0c00842f 	jal	800210bc <DputCh>
80021190:	00000000 	nop
80021194:	8fc20018 	lw	v0,24(s8)
80021198:	24420001 	addiu	v0,v0,1
8002119c:	afc20018 	sw	v0,24(s8)
800211a0:	0800845c 	j	80021170 <DputStr+0x14>
800211a4:	00000000 	nop
800211a8:	2404000a 	li	a0,10
800211ac:	0c00842f 	jal	800210bc <DputCh>
800211b0:	00000000 	nop
800211b4:	03c0e821 	move	sp,s8
800211b8:	8fbf0014 	lw	ra,20(sp)
800211bc:	8fbe0010 	lw	s8,16(sp)
800211c0:	27bd0018 	addiu	sp,sp,24
800211c4:	03e00008 	jr	ra
800211c8:	00000000 	nop

800211cc <bfifo_put>:
800211cc:	27bdffe0 	addiu	sp,sp,-32
800211d0:	afbf0018 	sw	ra,24(sp)
800211d4:	afbe0014 	sw	s8,20(sp)
800211d8:	afb00010 	sw	s0,16(sp)
800211dc:	03a0f021 	move	s8,sp
800211e0:	afc40020 	sw	a0,32(s8)
800211e4:	00a01021 	move	v0,a1
800211e8:	a3c20024 	sb	v0,36(s8)
800211ec:	8fc20020 	lw	v0,32(s8)
800211f0:	0002102b 	sltu	v0,zero,v0
800211f4:	00402021 	move	a0,v0
800211f8:	3c028002 	lui	v0,0x8002
800211fc:	24452864 	addiu	a1,v0,10340
80021200:	24060054 	li	a2,84
80021204:	0c00828d 	jal	80020a34 <kdebug_assert_at>
80021208:	00000000 	nop
8002120c:	8fc20020 	lw	v0,32(s8)
80021210:	8c420020 	lw	v0,32(v0)
80021214:	2c420020 	sltiu	v0,v0,32
80021218:	1040000b 	beqz	v0,80021248 <bfifo_put+0x7c>
8002121c:	00000000 	nop
80021220:	8fc40020 	lw	a0,32(s8)
80021224:	8fc20020 	lw	v0,32(s8)
80021228:	24450020 	addiu	a1,v0,32
8002122c:	8ca30000 	lw	v1,0(a1)
80021230:	00601021 	move	v0,v1
80021234:	00442021 	addu	a0,v0,a0
80021238:	93c20024 	lbu	v0,36(s8)
8002123c:	a0820000 	sb	v0,0(a0)
80021240:	24630001 	addiu	v1,v1,1
80021244:	aca30000 	sw	v1,0(a1)
80021248:	3c028002 	lui	v0,0x8002
8002124c:	8c42285c 	lw	v0,10332(v0)
80021250:	90420005 	lbu	v0,5(v0)
80021254:	30420020 	andi	v0,v0,0x20
80021258:	304200ff 	andi	v0,v0,0xff
8002125c:	10400015 	beqz	v0,800212b4 <bfifo_put+0xe8>
80021260:	00000000 	nop
80021264:	3c028002 	lui	v0,0x8002
80021268:	8c50285c 	lw	s0,10332(v0)
8002126c:	8fc40020 	lw	a0,32(s8)
80021270:	0c00852d 	jal	800214b4 <bfifo_get>
80021274:	00000000 	nop
80021278:	a2020000 	sb	v0,0(s0)
8002127c:	3c028002 	lui	v0,0x8002
80021280:	8c45285c 	lw	a1,10332(v0)
80021284:	8fc20020 	lw	v0,32(s8)
80021288:	8c420020 	lw	v0,32(v0)
8002128c:	0002102b 	sltu	v0,zero,v0
80021290:	30420001 	andi	v0,v0,0x1
80021294:	00022040 	sll	a0,v0,0x1
80021298:	90a30001 	lbu	v1,1(a1)
8002129c:	2402fffd 	li	v0,-3
800212a0:	00621024 	and	v0,v1,v0
800212a4:	00401821 	move	v1,v0
800212a8:	00801021 	move	v0,a0
800212ac:	00621025 	or	v0,v1,v0
800212b0:	a0a20001 	sb	v0,1(a1)
800212b4:	03c0e821 	move	sp,s8
800212b8:	8fbf0018 	lw	ra,24(sp)
800212bc:	8fbe0014 	lw	s8,20(sp)
800212c0:	8fb00010 	lw	s0,16(sp)
800212c4:	27bd0020 	addiu	sp,sp,32
800212c8:	03e00008 	jr	ra
800212cc:	00000000 	nop

800212d0 <bfifo_putStr>:
800212d0:	27bdffe0 	addiu	sp,sp,-32
800212d4:	afbf0018 	sw	ra,24(sp)
800212d8:	afbe0014 	sw	s8,20(sp)
800212dc:	afb00010 	sw	s0,16(sp)
800212e0:	03a0f021 	move	s8,sp
800212e4:	afc40020 	sw	a0,32(s8)
800212e8:	afc50024 	sw	a1,36(s8)
800212ec:	8fc20020 	lw	v0,32(s8)
800212f0:	0002102b 	sltu	v0,zero,v0
800212f4:	00402021 	move	a0,v0
800212f8:	3c028002 	lui	v0,0x8002
800212fc:	24452864 	addiu	a1,v0,10340
80021300:	24060065 	li	a2,101
80021304:	0c00828d 	jal	80020a34 <kdebug_assert_at>
80021308:	00000000 	nop
8002130c:	8fc20024 	lw	v0,36(s8)
80021310:	80420000 	lb	v0,0(v0)
80021314:	10400060 	beqz	v0,80021498 <bfifo_putStr+0x1c8>
80021318:	00000000 	nop
8002131c:	8fc20020 	lw	v0,32(s8)
80021320:	8c420020 	lw	v0,32(v0)
80021324:	2c420020 	sltiu	v0,v0,32
80021328:	1040000c 	beqz	v0,8002135c <bfifo_putStr+0x8c>
8002132c:	00000000 	nop
80021330:	8fc40020 	lw	a0,32(s8)
80021334:	8fc20020 	lw	v0,32(s8)
80021338:	24450020 	addiu	a1,v0,32
8002133c:	8ca30000 	lw	v1,0(a1)
80021340:	00601021 	move	v0,v1
80021344:	00442021 	addu	a0,v0,a0
80021348:	8fc20024 	lw	v0,36(s8)
8002134c:	90420000 	lbu	v0,0(v0)
80021350:	a0820000 	sb	v0,0(a0)
80021354:	24630001 	addiu	v1,v1,1
80021358:	aca30000 	sw	v1,0(a1)
8002135c:	3c028002 	lui	v0,0x8002
80021360:	8c42285c 	lw	v0,10332(v0)
80021364:	90420005 	lbu	v0,5(v0)
80021368:	30420020 	andi	v0,v0,0x20
8002136c:	304200ff 	andi	v0,v0,0xff
80021370:	10400015 	beqz	v0,800213c8 <bfifo_putStr+0xf8>
80021374:	00000000 	nop
80021378:	3c028002 	lui	v0,0x8002
8002137c:	8c50285c 	lw	s0,10332(v0)
80021380:	8fc40020 	lw	a0,32(s8)
80021384:	0c00852d 	jal	800214b4 <bfifo_get>
80021388:	00000000 	nop
8002138c:	a2020000 	sb	v0,0(s0)
80021390:	3c028002 	lui	v0,0x8002
80021394:	8c45285c 	lw	a1,10332(v0)
80021398:	8fc20020 	lw	v0,32(s8)
8002139c:	8c420020 	lw	v0,32(v0)
800213a0:	0002102b 	sltu	v0,zero,v0
800213a4:	30420001 	andi	v0,v0,0x1
800213a8:	00022040 	sll	a0,v0,0x1
800213ac:	90a30001 	lbu	v1,1(a1)
800213b0:	2402fffd 	li	v0,-3
800213b4:	00621024 	and	v0,v1,v0
800213b8:	00401821 	move	v1,v0
800213bc:	00801021 	move	v0,a0
800213c0:	00621025 	or	v0,v1,v0
800213c4:	a0a20001 	sb	v0,1(a1)
800213c8:	8fc20024 	lw	v0,36(s8)
800213cc:	80430000 	lb	v1,0(v0)
800213d0:	2402000a 	li	v0,10
800213d4:	1462002b 	bne	v1,v0,80021484 <bfifo_putStr+0x1b4>
800213d8:	00000000 	nop
800213dc:	8fc20020 	lw	v0,32(s8)
800213e0:	8c420020 	lw	v0,32(v0)
800213e4:	2c420020 	sltiu	v0,v0,32
800213e8:	1040000b 	beqz	v0,80021418 <bfifo_putStr+0x148>
800213ec:	00000000 	nop
800213f0:	8fc40020 	lw	a0,32(s8)
800213f4:	8fc20020 	lw	v0,32(s8)
800213f8:	24450020 	addiu	a1,v0,32
800213fc:	8ca30000 	lw	v1,0(a1)
80021400:	00601021 	move	v0,v1
80021404:	00442021 	addu	a0,v0,a0
80021408:	2402000d 	li	v0,13
8002140c:	a0820000 	sb	v0,0(a0)
80021410:	24630001 	addiu	v1,v1,1
80021414:	aca30000 	sw	v1,0(a1)
80021418:	3c028002 	lui	v0,0x8002
8002141c:	8c42285c 	lw	v0,10332(v0)
80021420:	90420005 	lbu	v0,5(v0)
80021424:	30420020 	andi	v0,v0,0x20
80021428:	304200ff 	andi	v0,v0,0xff
8002142c:	10400015 	beqz	v0,80021484 <bfifo_putStr+0x1b4>
80021430:	00000000 	nop
80021434:	3c028002 	lui	v0,0x8002
80021438:	8c50285c 	lw	s0,10332(v0)
8002143c:	8fc40020 	lw	a0,32(s8)
80021440:	0c00852d 	jal	800214b4 <bfifo_get>
80021444:	00000000 	nop
80021448:	a2020000 	sb	v0,0(s0)
8002144c:	3c028002 	lui	v0,0x8002
80021450:	8c45285c 	lw	a1,10332(v0)
80021454:	8fc20020 	lw	v0,32(s8)
80021458:	8c420020 	lw	v0,32(v0)
8002145c:	0002102b 	sltu	v0,zero,v0
80021460:	30420001 	andi	v0,v0,0x1
80021464:	00022040 	sll	a0,v0,0x1
80021468:	90a30001 	lbu	v1,1(a1)
8002146c:	2402fffd 	li	v0,-3
80021470:	00621024 	and	v0,v1,v0
80021474:	00401821 	move	v1,v0
80021478:	00801021 	move	v0,a0
8002147c:	00621025 	or	v0,v1,v0
80021480:	a0a20001 	sb	v0,1(a1)
80021484:	8fc20024 	lw	v0,36(s8)
80021488:	24420001 	addiu	v0,v0,1
8002148c:	afc20024 	sw	v0,36(s8)
80021490:	080084c3 	j	8002130c <bfifo_putStr+0x3c>
80021494:	00000000 	nop
80021498:	03c0e821 	move	sp,s8
8002149c:	8fbf0018 	lw	ra,24(sp)
800214a0:	8fbe0014 	lw	s8,20(sp)
800214a4:	8fb00010 	lw	s0,16(sp)
800214a8:	27bd0020 	addiu	sp,sp,32
800214ac:	03e00008 	jr	ra
800214b0:	00000000 	nop

800214b4 <bfifo_get>:
800214b4:	27bdffe0 	addiu	sp,sp,-32
800214b8:	afbf001c 	sw	ra,28(sp)
800214bc:	afbe0018 	sw	s8,24(sp)
800214c0:	03a0f021 	move	s8,sp
800214c4:	afc40020 	sw	a0,32(s8)
800214c8:	8fc20020 	lw	v0,32(s8)
800214cc:	0002102b 	sltu	v0,zero,v0
800214d0:	00402021 	move	a0,v0
800214d4:	3c028002 	lui	v0,0x8002
800214d8:	24452864 	addiu	a1,v0,10340
800214dc:	24060088 	li	a2,136
800214e0:	0c00828d 	jal	80020a34 <kdebug_assert_at>
800214e4:	00000000 	nop
800214e8:	8fc20020 	lw	v0,32(s8)
800214ec:	8c420020 	lw	v0,32(v0)
800214f0:	0002102b 	sltu	v0,zero,v0
800214f4:	00402021 	move	a0,v0
800214f8:	3c028002 	lui	v0,0x8002
800214fc:	24452864 	addiu	a1,v0,10340
80021500:	24060089 	li	a2,137
80021504:	0c00828d 	jal	80020a34 <kdebug_assert_at>
80021508:	00000000 	nop
8002150c:	8fc30020 	lw	v1,32(s8)
80021510:	8fc20020 	lw	v0,32(s8)
80021514:	8c420020 	lw	v0,32(v0)
80021518:	2442ffff 	addiu	v0,v0,-1
8002151c:	ac620020 	sw	v0,32(v1)
80021520:	8fc20020 	lw	v0,32(s8)
80021524:	90420000 	lbu	v0,0(v0)
80021528:	a3c20014 	sb	v0,20(s8)
8002152c:	afc00010 	sw	zero,16(s8)
80021530:	8fc20020 	lw	v0,32(s8)
80021534:	8fc30010 	lw	v1,16(s8)
80021538:	8c420020 	lw	v0,32(v0)
8002153c:	0062102b 	sltu	v0,v1,v0
80021540:	1040000e 	beqz	v0,8002157c <bfifo_get+0xc8>
80021544:	00000000 	nop
80021548:	8fc30020 	lw	v1,32(s8)
8002154c:	8fc20010 	lw	v0,16(s8)
80021550:	00622021 	addu	a0,v1,v0
80021554:	8fc30020 	lw	v1,32(s8)
80021558:	8fc20010 	lw	v0,16(s8)
8002155c:	00621021 	addu	v0,v1,v0
80021560:	90420001 	lbu	v0,1(v0)
80021564:	a0820000 	sb	v0,0(a0)
80021568:	8fc20010 	lw	v0,16(s8)
8002156c:	24420001 	addiu	v0,v0,1
80021570:	afc20010 	sw	v0,16(s8)
80021574:	0800854c 	j	80021530 <bfifo_get+0x7c>
80021578:	00000000 	nop
8002157c:	93c20014 	lbu	v0,20(s8)
80021580:	03c0e821 	move	sp,s8
80021584:	8fbf001c 	lw	ra,28(sp)
80021588:	8fbe0018 	lw	s8,24(sp)
8002158c:	27bd0020 	addiu	sp,sp,32
80021590:	03e00008 	jr	ra
80021594:	00000000 	nop

80021598 <bfifo_flush>:
80021598:	27bdffe0 	addiu	sp,sp,-32
8002159c:	afbf001c 	sw	ra,28(sp)
800215a0:	afbe0018 	sw	s8,24(sp)
800215a4:	03a0f021 	move	s8,sp
800215a8:	afc40020 	sw	a0,32(s8)
800215ac:	8fc20020 	lw	v0,32(s8)
800215b0:	0002102b 	sltu	v0,zero,v0
800215b4:	00402021 	move	a0,v0
800215b8:	3c028002 	lui	v0,0x8002
800215bc:	24452864 	addiu	a1,v0,10340
800215c0:	2406009a 	li	a2,154
800215c4:	0c00828d 	jal	80020a34 <kdebug_assert_at>
800215c8:	00000000 	nop
800215cc:	8fc20020 	lw	v0,32(s8)
800215d0:	8c420020 	lw	v0,32(v0)
800215d4:	0002102b 	sltu	v0,zero,v0
800215d8:	00402021 	move	a0,v0
800215dc:	3c028002 	lui	v0,0x8002
800215e0:	24452864 	addiu	a1,v0,10340
800215e4:	2406009b 	li	a2,155
800215e8:	0c00828d 	jal	80020a34 <kdebug_assert_at>
800215ec:	00000000 	nop
800215f0:	8fc20020 	lw	v0,32(s8)
800215f4:	8c420020 	lw	v0,32(v0)
800215f8:	1040002f 	beqz	v0,800216b8 <bfifo_flush+0x120>
800215fc:	00000000 	nop
80021600:	afc00010 	sw	zero,16(s8)
80021604:	8fc20020 	lw	v0,32(s8)
80021608:	8fc30010 	lw	v1,16(s8)
8002160c:	8c420020 	lw	v0,32(v0)
80021610:	0062102b 	sltu	v0,v1,v0
80021614:	10400026 	beqz	v0,800216b0 <bfifo_flush+0x118>
80021618:	00000000 	nop
8002161c:	8fc20020 	lw	v0,32(s8)
80021620:	8c420020 	lw	v0,32(v0)
80021624:	1040001d 	beqz	v0,8002169c <bfifo_flush+0x104>
80021628:	00000000 	nop
8002162c:	3c028002 	lui	v0,0x8002
80021630:	8c42285c 	lw	v0,10332(v0)
80021634:	90420005 	lbu	v0,5(v0)
80021638:	30420020 	andi	v0,v0,0x20
8002163c:	304200ff 	andi	v0,v0,0xff
80021640:	10400016 	beqz	v0,8002169c <bfifo_flush+0x104>
80021644:	00000000 	nop
80021648:	3c028002 	lui	v0,0x8002
8002164c:	8c44285c 	lw	a0,10332(v0)
80021650:	8fc30020 	lw	v1,32(s8)
80021654:	8fc20010 	lw	v0,16(s8)
80021658:	00621021 	addu	v0,v1,v0
8002165c:	90420000 	lbu	v0,0(v0)
80021660:	a0820000 	sb	v0,0(a0)
80021664:	3c028002 	lui	v0,0x8002
80021668:	8c45285c 	lw	a1,10332(v0)
8002166c:	8fc20020 	lw	v0,32(s8)
80021670:	8c420020 	lw	v0,32(v0)
80021674:	0002102b 	sltu	v0,zero,v0
80021678:	30420001 	andi	v0,v0,0x1
8002167c:	00022040 	sll	a0,v0,0x1
80021680:	90a30001 	lbu	v1,1(a1)
80021684:	2402fffd 	li	v0,-3
80021688:	00621024 	and	v0,v1,v0
8002168c:	00401821 	move	v1,v0
80021690:	00801021 	move	v0,a0
80021694:	00621025 	or	v0,v1,v0
80021698:	a0a20001 	sb	v0,1(a1)
8002169c:	8fc20010 	lw	v0,16(s8)
800216a0:	24420001 	addiu	v0,v0,1
800216a4:	afc20010 	sw	v0,16(s8)
800216a8:	08008581 	j	80021604 <bfifo_flush+0x6c>
800216ac:	00000000 	nop
800216b0:	8fc20020 	lw	v0,32(s8)
800216b4:	ac400020 	sw	zero,32(v0)
800216b8:	03c0e821 	move	sp,s8
800216bc:	8fbf001c 	lw	ra,28(sp)
800216c0:	8fbe0018 	lw	s8,24(sp)
800216c4:	27bd0020 	addiu	sp,sp,32
800216c8:	03e00008 	jr	ra
800216cc:	00000000 	nop

800216d0 <tty_command>:
800216d0:	27bdfff8 	addiu	sp,sp,-8
800216d4:	afbe0000 	sw	s8,0(sp)
800216d8:	03a0f021 	move	s8,sp
800216dc:	afc40008 	sw	a0,8(s8)
800216e0:	03c0e821 	move	sp,s8
800216e4:	8fbe0000 	lw	s8,0(sp)
800216e8:	27bd0008 	addiu	sp,sp,8
800216ec:	03e00008 	jr	ra
800216f0:	00000000 	nop

800216f4 <block>:
800216f4:	27bdfff8 	addiu	sp,sp,-8
800216f8:	afbe0000 	sw	s8,0(sp)
800216fc:	03a0f021 	move	s8,sp
80021700:	03c0e821 	move	sp,s8
80021704:	8fbe0000 	lw	s8,0(sp)
80021708:	27bd0008 	addiu	sp,sp,8
8002170c:	03e00008 	jr	ra
80021710:	00000000 	nop

80021714 <tty_interrupt>:
80021714:	27bdffd8 	addiu	sp,sp,-40
80021718:	afbf0020 	sw	ra,32(sp)
8002171c:	afbe001c 	sw	s8,28(sp)
80021720:	afb00018 	sw	s0,24(sp)
80021724:	03a0f021 	move	s8,sp
80021728:	3c028002 	lui	v0,0x8002
8002172c:	8c42285c 	lw	v0,10332(v0)
80021730:	90420005 	lbu	v0,5(v0)
80021734:	30420001 	andi	v0,v0,0x1
80021738:	304200ff 	andi	v0,v0,0xff
8002173c:	10400022 	beqz	v0,800217c8 <tty_interrupt+0xb4>
80021740:	00000000 	nop
80021744:	3c028002 	lui	v0,0x8002
80021748:	8c42285c 	lw	v0,10332(v0)
8002174c:	90420000 	lbu	v0,0(v0)
80021750:	a3c20010 	sb	v0,16(s8)
80021754:	83c30010 	lb	v1,16(s8)
80021758:	3c028007 	lui	v0,0x8007
8002175c:	24443168 	addiu	a0,v0,12648
80021760:	00602821 	move	a1,v1
80021764:	0c008473 	jal	800211cc <bfifo_put>
80021768:	00000000 	nop
8002176c:	93c30010 	lbu	v1,16(s8)
80021770:	2402000d 	li	v0,13
80021774:	14620006 	bne	v1,v0,80021790 <tty_interrupt+0x7c>
80021778:	00000000 	nop
8002177c:	3c028007 	lui	v0,0x8007
80021780:	24443168 	addiu	a0,v0,12648
80021784:	2405000a 	li	a1,10
80021788:	0c008473 	jal	800211cc <bfifo_put>
8002178c:	00000000 	nop
80021790:	93c30010 	lbu	v1,16(s8)
80021794:	24020008 	li	v0,8
80021798:	1462000b 	bne	v1,v0,800217c8 <tty_interrupt+0xb4>
8002179c:	00000000 	nop
800217a0:	3c028007 	lui	v0,0x8007
800217a4:	24443168 	addiu	a0,v0,12648
800217a8:	24050020 	li	a1,32
800217ac:	0c008473 	jal	800211cc <bfifo_put>
800217b0:	00000000 	nop
800217b4:	3c028007 	lui	v0,0x8007
800217b8:	24443168 	addiu	a0,v0,12648
800217bc:	24050008 	li	a1,8
800217c0:	0c008473 	jal	800211cc <bfifo_put>
800217c4:	00000000 	nop
800217c8:	3c028007 	lui	v0,0x8007
800217cc:	24423168 	addiu	v0,v0,12648
800217d0:	8c420020 	lw	v0,32(v0)
800217d4:	1040001e 	beqz	v0,80021850 <tty_interrupt+0x13c>
800217d8:	00000000 	nop
800217dc:	3c028002 	lui	v0,0x8002
800217e0:	8c42285c 	lw	v0,10332(v0)
800217e4:	90420005 	lbu	v0,5(v0)
800217e8:	30420020 	andi	v0,v0,0x20
800217ec:	304200ff 	andi	v0,v0,0xff
800217f0:	10400017 	beqz	v0,80021850 <tty_interrupt+0x13c>
800217f4:	00000000 	nop
800217f8:	3c028002 	lui	v0,0x8002
800217fc:	8c50285c 	lw	s0,10332(v0)
80021800:	3c028007 	lui	v0,0x8007
80021804:	24443168 	addiu	a0,v0,12648
80021808:	0c00852d 	jal	800214b4 <bfifo_get>
8002180c:	00000000 	nop
80021810:	a2020000 	sb	v0,0(s0)
80021814:	3c028002 	lui	v0,0x8002
80021818:	8c45285c 	lw	a1,10332(v0)
8002181c:	3c028007 	lui	v0,0x8007
80021820:	24423168 	addiu	v0,v0,12648
80021824:	8c420020 	lw	v0,32(v0)
80021828:	0002102b 	sltu	v0,zero,v0
8002182c:	30420001 	andi	v0,v0,0x1
80021830:	00022040 	sll	a0,v0,0x1
80021834:	90a30001 	lbu	v1,1(a1)
80021838:	2402fffd 	li	v0,-3
8002183c:	00621024 	and	v0,v1,v0
80021840:	00401821 	move	v1,v0
80021844:	00801021 	move	v0,a0
80021848:	00621025 	or	v0,v1,v0
8002184c:	a0a20001 	sb	v0,1(a1)
80021850:	2404efff 	li	a0,-4097
80021854:	00002821 	move	a1,zero
80021858:	0c008914 	jal	80022450 <kset_cause>
8002185c:	00000000 	nop
80021860:	03c0e821 	move	sp,s8
80021864:	8fbf0020 	lw	ra,32(sp)
80021868:	8fbe001c 	lw	s8,28(sp)
8002186c:	8fb00018 	lw	s0,24(sp)
80021870:	27bd0028 	addiu	sp,sp,40
80021874:	03e00008 	jr	ra
80021878:	00000000 	nop

8002187c <init_devices>:
8002187c:	27bdffe0 	addiu	sp,sp,-32
80021880:	afbf001c 	sw	ra,28(sp)
80021884:	afbe0018 	sw	s8,24(sp)
80021888:	03a0f021 	move	s8,sp
8002188c:	3c028007 	lui	v0,0x8007
80021890:	24423168 	addiu	v0,v0,12648
80021894:	ac400020 	sw	zero,32(v0)
80021898:	3c028002 	lui	v0,0x8002
8002189c:	8c43285c 	lw	v1,10332(v0)
800218a0:	90620004 	lbu	v0,4(v1)
800218a4:	34420008 	ori	v0,v0,0x8
800218a8:	a0620004 	sb	v0,4(v1)
800218ac:	3c028002 	lui	v0,0x8002
800218b0:	8c43285c 	lw	v1,10332(v0)
800218b4:	90620001 	lbu	v0,1(v1)
800218b8:	34420001 	ori	v0,v0,0x1
800218bc:	a0620001 	sb	v0,1(v1)
800218c0:	3c028002 	lui	v0,0x8002
800218c4:	8c43285c 	lw	v1,10332(v0)
800218c8:	90620003 	lbu	v0,3(v1)
800218cc:	34420001 	ori	v0,v0,0x1
800218d0:	a0620003 	sb	v0,3(v1)
800218d4:	3c028002 	lui	v0,0x8002
800218d8:	8c43285c 	lw	v1,10332(v0)
800218dc:	90620003 	lbu	v0,3(v1)
800218e0:	34420002 	ori	v0,v0,0x2
800218e4:	a0620003 	sb	v0,3(v1)
800218e8:	2402ffff 	li	v0,-1
800218ec:	afc20010 	sw	v0,16(s8)
800218f0:	8fc30010 	lw	v1,16(s8)
800218f4:	2402fffd 	li	v0,-3
800218f8:	00621024 	and	v0,v1,v0
800218fc:	afc20010 	sw	v0,16(s8)
80021900:	8fc30010 	lw	v1,16(s8)
80021904:	2402fffb 	li	v0,-5
80021908:	00621024 	and	v0,v1,v0
8002190c:	afc20010 	sw	v0,16(s8)
80021910:	8fc30010 	lw	v1,16(s8)
80021914:	2402ffef 	li	v0,-17
80021918:	00621024 	and	v0,v1,v0
8002191c:	afc20010 	sw	v0,16(s8)
80021920:	24020004 	li	v0,4
80021924:	a3c20011 	sb	v0,17(s8)
80021928:	8fc30010 	lw	v1,16(s8)
8002192c:	3c02ffbf 	lui	v0,0xffbf
80021930:	3442ffff 	ori	v0,v0,0xffff
80021934:	00621024 	and	v0,v1,v0
80021938:	afc20010 	sw	v0,16(s8)
8002193c:	afc00014 	sw	zero,20(s8)
80021940:	8fc20014 	lw	v0,20(s8)
80021944:	34420001 	ori	v0,v0,0x1
80021948:	afc20014 	sw	v0,20(s8)
8002194c:	24020004 	li	v0,4
80021950:	a3c20015 	sb	v0,21(s8)
80021954:	8fc30014 	lw	v1,20(s8)
80021958:	3c021000 	lui	v0,0x1000
8002195c:	00621025 	or	v0,v1,v0
80021960:	afc20014 	sw	v0,20(s8)
80021964:	8fc40010 	lw	a0,16(s8)
80021968:	8fc50014 	lw	a1,20(s8)
8002196c:	0c00890b 	jal	8002242c <kset_sr>
80021970:	00000000 	nop
80021974:	3c028002 	lui	v0,0x8002
80021978:	2444287c 	addiu	a0,v0,10364
8002197c:	0c008457 	jal	8002115c <DputStr>
80021980:	00000000 	nop
80021984:	03c0e821 	move	sp,s8
80021988:	8fbf001c 	lw	ra,28(sp)
8002198c:	8fbe0018 	lw	s8,24(sp)
80021990:	27bd0020 	addiu	sp,sp,32
80021994:	03e00008 	jr	ra
80021998:	00000000 	nop

8002199c <init_poc>:
8002199c:	27bdffe0 	addiu	sp,sp,-32
800219a0:	afbf001c 	sw	ra,28(sp)
800219a4:	afbe0018 	sw	s8,24(sp)
800219a8:	03a0f021 	move	s8,sp
800219ac:	3c048007 	lui	a0,0x8007
800219b0:	3c028007 	lui	v0,0x8007
800219b4:	24433130 	addiu	v1,v0,12592
800219b8:	3c028007 	lui	v0,0x8007
800219bc:	24423130 	addiu	v0,v0,12592
800219c0:	ac400008 	sw	zero,8(v0)
800219c4:	ac600004 	sw	zero,4(v1)
800219c8:	ac803130 	sw	zero,12592(a0)
800219cc:	3c038007 	lui	v1,0x8007
800219d0:	3c028008 	lui	v0,0x8008
800219d4:	2442818c 	addiu	v0,v0,-32372
800219d8:	ac62313c 	sw	v0,12604(v1)
800219dc:	3c028007 	lui	v0,0x8007
800219e0:	2443313c 	addiu	v1,v0,12604
800219e4:	3c028008 	lui	v0,0x8008
800219e8:	24428ba4 	addiu	v0,v0,-29788
800219ec:	ac620004 	sw	v0,4(v1)
800219f0:	3c028008 	lui	v0,0x8008
800219f4:	a040818c 	sb	zero,-32372(v0)
800219f8:	3c028008 	lui	v0,0x8008
800219fc:	2443818c 	addiu	v1,v0,-32372
80021a00:	2402ffff 	li	v0,-1
80021a04:	a4620002 	sh	v0,2(v1)
80021a08:	3c028008 	lui	v0,0x8008
80021a0c:	2442818c 	addiu	v0,v0,-32372
80021a10:	a0400004 	sb	zero,4(v0)
80021a14:	3c028008 	lui	v0,0x8008
80021a18:	2442818c 	addiu	v0,v0,-32372
80021a1c:	a0400005 	sb	zero,5(v0)
80021a20:	3c028008 	lui	v0,0x8008
80021a24:	2442818c 	addiu	v0,v0,-32372
80021a28:	a4400006 	sh	zero,6(v0)
80021a2c:	3c028008 	lui	v0,0x8008
80021a30:	2443818c 	addiu	v1,v0,-32372
80021a34:	3c028007 	lui	v0,0x8007
80021a38:	2442318c 	addiu	v0,v0,12684
80021a3c:	ac62006c 	sw	v0,108(v1)
80021a40:	3c028008 	lui	v0,0x8008
80021a44:	2443818c 	addiu	v1,v0,-32372
80021a48:	3c028008 	lui	v0,0x8008
80021a4c:	24428214 	addiu	v0,v0,-32236
80021a50:	ac620080 	sw	v0,128(v1)
80021a54:	3c028008 	lui	v0,0x8008
80021a58:	2443818c 	addiu	v1,v0,-32372
80021a5c:	3c028008 	lui	v0,0x8008
80021a60:	24428ba4 	addiu	v0,v0,-29788
80021a64:	ac620084 	sw	v0,132(v1)
80021a68:	3c028008 	lui	v0,0x8008
80021a6c:	2443818c 	addiu	v1,v0,-32372
80021a70:	24020013 	li	v0,19
80021a74:	a0620a18 	sb	v0,2584(v1)
80021a78:	3c028008 	lui	v0,0x8008
80021a7c:	2443818c 	addiu	v1,v0,-32372
80021a80:	2402ffff 	li	v0,-1
80021a84:	a4620a1a 	sh	v0,2586(v1)
80021a88:	3c028008 	lui	v0,0x8008
80021a8c:	2442818c 	addiu	v0,v0,-32372
80021a90:	a0400a1c 	sb	zero,2588(v0)
80021a94:	3c028008 	lui	v0,0x8008
80021a98:	2442818c 	addiu	v0,v0,-32372
80021a9c:	a0400a1d 	sb	zero,2589(v0)
80021aa0:	3c028008 	lui	v0,0x8008
80021aa4:	2442818c 	addiu	v0,v0,-32372
80021aa8:	a4400a1e 	sh	zero,2590(v0)
80021aac:	3c028008 	lui	v0,0x8008
80021ab0:	2443818c 	addiu	v1,v0,-32372
80021ab4:	3c028007 	lui	v0,0x8007
80021ab8:	24427d8c 	addiu	v0,v0,32140
80021abc:	ac620a84 	sw	v0,2692(v1)
80021ac0:	3c028008 	lui	v0,0x8008
80021ac4:	2443818c 	addiu	v1,v0,-32372
80021ac8:	3c028008 	lui	v0,0x8008
80021acc:	2442818c 	addiu	v0,v0,-32372
80021ad0:	ac620a98 	sw	v0,2712(v1)
80021ad4:	3c028008 	lui	v0,0x8008
80021ad8:	2443818c 	addiu	v1,v0,-32372
80021adc:	3c028008 	lui	v0,0x8008
80021ae0:	24428b1c 	addiu	v0,v0,-29924
80021ae4:	ac620a9c 	sw	v0,2716(v1)
80021ae8:	24020001 	li	v0,1
80021aec:	afc20010 	sw	v0,16(s8)
80021af0:	8fc20010 	lw	v0,16(s8)
80021af4:	28420013 	slti	v0,v0,19
80021af8:	10400066 	beqz	v0,80021c94 <init_poc+0x2f8>
80021afc:	00000000 	nop
80021b00:	3c048008 	lui	a0,0x8008
80021b04:	8fc30010 	lw	v1,16(s8)
80021b08:	00601021 	move	v0,v1
80021b0c:	00021100 	sll	v0,v0,0x4
80021b10:	00431021 	addu	v0,v0,v1
80021b14:	000218c0 	sll	v1,v0,0x3
80021b18:	2482818c 	addiu	v0,a0,-32372
80021b1c:	00621821 	addu	v1,v1,v0
80021b20:	8fc20010 	lw	v0,16(s8)
80021b24:	a0620000 	sb	v0,0(v1)
80021b28:	3c048008 	lui	a0,0x8008
80021b2c:	8fc30010 	lw	v1,16(s8)
80021b30:	00601021 	move	v0,v1
80021b34:	00021100 	sll	v0,v0,0x4
80021b38:	00431021 	addu	v0,v0,v1
80021b3c:	000218c0 	sll	v1,v0,0x3
80021b40:	2482818c 	addiu	v0,a0,-32372
80021b44:	00621821 	addu	v1,v1,v0
80021b48:	2402ffff 	li	v0,-1
80021b4c:	a4620002 	sh	v0,2(v1)
80021b50:	3c048008 	lui	a0,0x8008
80021b54:	8fc30010 	lw	v1,16(s8)
80021b58:	00601021 	move	v0,v1
80021b5c:	00021100 	sll	v0,v0,0x4
80021b60:	00431021 	addu	v0,v0,v1
80021b64:	000218c0 	sll	v1,v0,0x3
80021b68:	2482818c 	addiu	v0,a0,-32372
80021b6c:	00621021 	addu	v0,v1,v0
80021b70:	a0400004 	sb	zero,4(v0)
80021b74:	3c048008 	lui	a0,0x8008
80021b78:	8fc30010 	lw	v1,16(s8)
80021b7c:	00601021 	move	v0,v1
80021b80:	00021100 	sll	v0,v0,0x4
80021b84:	00431021 	addu	v0,v0,v1
80021b88:	000218c0 	sll	v1,v0,0x3
80021b8c:	2482818c 	addiu	v0,a0,-32372
80021b90:	00621021 	addu	v0,v1,v0
80021b94:	a0400005 	sb	zero,5(v0)
80021b98:	3c048008 	lui	a0,0x8008
80021b9c:	8fc30010 	lw	v1,16(s8)
80021ba0:	00601021 	move	v0,v1
80021ba4:	00021100 	sll	v0,v0,0x4
80021ba8:	00431021 	addu	v0,v0,v1
80021bac:	000218c0 	sll	v1,v0,0x3
80021bb0:	2482818c 	addiu	v0,a0,-32372
80021bb4:	00621021 	addu	v0,v1,v0
80021bb8:	a4400006 	sh	zero,6(v0)
80021bbc:	3c028008 	lui	v0,0x8008
80021bc0:	8fc30010 	lw	v1,16(s8)
80021bc4:	2444818c 	addiu	a0,v0,-32372
80021bc8:	00601021 	move	v0,v1
80021bcc:	00021100 	sll	v0,v0,0x4
80021bd0:	00431021 	addu	v0,v0,v1
80021bd4:	000210c0 	sll	v0,v0,0x3
80021bd8:	00442021 	addu	a0,v0,a0
80021bdc:	8fc20010 	lw	v0,16(s8)
80021be0:	00021a80 	sll	v1,v0,0xa
80021be4:	3c028007 	lui	v0,0x8007
80021be8:	2442318c 	addiu	v0,v0,12684
80021bec:	00621021 	addu	v0,v1,v0
80021bf0:	ac82006c 	sw	v0,108(a0)
80021bf4:	3c048008 	lui	a0,0x8008
80021bf8:	8fc30010 	lw	v1,16(s8)
80021bfc:	00601021 	move	v0,v1
80021c00:	00021100 	sll	v0,v0,0x4
80021c04:	00431021 	addu	v0,v0,v1
80021c08:	000218c0 	sll	v1,v0,0x3
80021c0c:	2482818c 	addiu	v0,a0,-32372
80021c10:	00622021 	addu	a0,v1,v0
80021c14:	8fc30010 	lw	v1,16(s8)
80021c18:	00601021 	move	v0,v1
80021c1c:	00021100 	sll	v0,v0,0x4
80021c20:	00431021 	addu	v0,v0,v1
80021c24:	000218c0 	sll	v1,v0,0x3
80021c28:	3c028008 	lui	v0,0x8008
80021c2c:	24428214 	addiu	v0,v0,-32236
80021c30:	00621021 	addu	v0,v1,v0
80021c34:	ac820080 	sw	v0,128(a0)
80021c38:	3c028008 	lui	v0,0x8008
80021c3c:	8fc30010 	lw	v1,16(s8)
80021c40:	2444818c 	addiu	a0,v0,-32372
80021c44:	00601021 	move	v0,v1
80021c48:	00021100 	sll	v0,v0,0x4
80021c4c:	00431021 	addu	v0,v0,v1
80021c50:	000210c0 	sll	v0,v0,0x3
80021c54:	00442021 	addu	a0,v0,a0
80021c58:	8fc30010 	lw	v1,16(s8)
80021c5c:	00601021 	move	v0,v1
80021c60:	00021100 	sll	v0,v0,0x4
80021c64:	00431021 	addu	v0,v0,v1
80021c68:	000218c0 	sll	v1,v0,0x3
80021c6c:	3c028008 	lui	v0,0x8008
80021c70:	2442818c 	addiu	v0,v0,-32372
80021c74:	2442ff78 	addiu	v0,v0,-136
80021c78:	00621021 	addu	v0,v1,v0
80021c7c:	ac820084 	sw	v0,132(a0)
80021c80:	8fc20010 	lw	v0,16(s8)
80021c84:	24420001 	addiu	v0,v0,1
80021c88:	afc20010 	sw	v0,16(s8)
80021c8c:	080086bc 	j	80021af0 <init_poc+0x154>
80021c90:	00000000 	nop
80021c94:	3c028002 	lui	v0,0x8002
80021c98:	244428a0 	addiu	a0,v0,10400
80021c9c:	0c008457 	jal	8002115c <DputStr>
80021ca0:	00000000 	nop
80021ca4:	03c0e821 	move	sp,s8
80021ca8:	8fbf001c 	lw	ra,28(sp)
80021cac:	8fbe0018 	lw	s8,24(sp)
80021cb0:	27bd0020 	addiu	sp,sp,32
80021cb4:	03e00008 	jr	ra
80021cb8:	00000000 	nop

80021cbc <get_pid>:
80021cbc:	27bdfff8 	addiu	sp,sp,-8
80021cc0:	afbe0000 	sw	s8,0(sp)
80021cc4:	03a0f021 	move	s8,sp
80021cc8:	3c028007 	lui	v0,0x8007
80021ccc:	24423130 	addiu	v0,v0,12592
80021cd0:	8c420004 	lw	v0,4(v0)
80021cd4:	80420000 	lb	v0,0(v0)
80021cd8:	03c0e821 	move	sp,s8
80021cdc:	8fbe0000 	lw	s8,0(sp)
80021ce0:	27bd0008 	addiu	sp,sp,8
80021ce4:	03e00008 	jr	ra
80021ce8:	00000000 	nop

80021cec <set_exec_image>:
80021cec:	27bdfff8 	addiu	sp,sp,-8
80021cf0:	afbe0000 	sw	s8,0(sp)
80021cf4:	03a0f021 	move	s8,sp
80021cf8:	afc40008 	sw	a0,8(s8)
80021cfc:	3c028007 	lui	v0,0x8007
80021d00:	24423130 	addiu	v0,v0,12592
80021d04:	8c430004 	lw	v1,4(v0)
80021d08:	8fc20008 	lw	v0,8(s8)
80021d0c:	94420000 	lhu	v0,0(v0)
80021d10:	a4620002 	sh	v0,2(v1)
80021d14:	03c0e821 	move	sp,s8
80021d18:	8fbe0000 	lw	s8,0(sp)
80021d1c:	27bd0008 	addiu	sp,sp,8
80021d20:	03e00008 	jr	ra
80021d24:	00000000 	nop

80021d28 <get_pcb>:
80021d28:	27bdfff0 	addiu	sp,sp,-16
80021d2c:	afbe0008 	sw	s8,8(sp)
80021d30:	03a0f021 	move	s8,sp
80021d34:	3c028007 	lui	v0,0x8007
80021d38:	8c42313c 	lw	v0,12604(v0)
80021d3c:	afc20000 	sw	v0,0(s8)
80021d40:	8fc30000 	lw	v1,0(s8)
80021d44:	24020001 	li	v0,1
80021d48:	a0620005 	sb	v0,5(v1)
80021d4c:	3c038007 	lui	v1,0x8007
80021d50:	8fc20000 	lw	v0,0(s8)
80021d54:	8c420080 	lw	v0,128(v0)
80021d58:	ac62313c 	sw	v0,12604(v1)
80021d5c:	8fc30000 	lw	v1,0(s8)
80021d60:	8fc20000 	lw	v0,0(s8)
80021d64:	ac400080 	sw	zero,128(v0)
80021d68:	ac600084 	sw	zero,132(v1)
80021d6c:	8fc20000 	lw	v0,0(s8)
80021d70:	03c0e821 	move	sp,s8
80021d74:	8fbe0008 	lw	s8,8(sp)
80021d78:	27bd0010 	addiu	sp,sp,16
80021d7c:	03e00008 	jr	ra
80021d80:	00000000 	nop

80021d84 <p_free_pcb>:
80021d84:	27bdfff8 	addiu	sp,sp,-8
80021d88:	afbe0000 	sw	s8,0(sp)
80021d8c:	03a0f021 	move	s8,sp
80021d90:	afc40008 	sw	a0,8(s8)
80021d94:	3c028007 	lui	v0,0x8007
80021d98:	2442313c 	addiu	v0,v0,12604
80021d9c:	8c420004 	lw	v0,4(v0)
80021da0:	14400009 	bnez	v0,80021dc8 <p_free_pcb+0x44>
80021da4:	00000000 	nop
80021da8:	3c048007 	lui	a0,0x8007
80021dac:	3c028007 	lui	v0,0x8007
80021db0:	2443313c 	addiu	v1,v0,12604
80021db4:	8fc20008 	lw	v0,8(s8)
80021db8:	ac620004 	sw	v0,4(v1)
80021dbc:	ac82313c 	sw	v0,12604(a0)
80021dc0:	0800877e 	j	80021df8 <p_free_pcb+0x74>
80021dc4:	00000000 	nop
80021dc8:	8fc30008 	lw	v1,8(s8)
80021dcc:	3c028007 	lui	v0,0x8007
80021dd0:	2442313c 	addiu	v0,v0,12604
80021dd4:	8c420004 	lw	v0,4(v0)
80021dd8:	ac620084 	sw	v0,132(v1)
80021ddc:	3c028007 	lui	v0,0x8007
80021de0:	2444313c 	addiu	a0,v0,12604
80021de4:	8fc20008 	lw	v0,8(s8)
80021de8:	8c430084 	lw	v1,132(v0)
80021dec:	8fc20008 	lw	v0,8(s8)
80021df0:	ac620080 	sw	v0,128(v1)
80021df4:	ac820004 	sw	v0,4(a0)
80021df8:	8fc20008 	lw	v0,8(s8)
80021dfc:	2403ffff 	li	v1,-1
80021e00:	a4430002 	sh	v1,2(v0)
80021e04:	8fc20008 	lw	v0,8(s8)
80021e08:	a0400005 	sb	zero,5(v0)
80021e0c:	03c0e821 	move	sp,s8
80021e10:	8fbe0000 	lw	s8,0(sp)
80021e14:	27bd0008 	addiu	sp,sp,8
80021e18:	03e00008 	jr	ra
80021e1c:	00000000 	nop

80021e20 <exit>:
80021e20:	27bdffe0 	addiu	sp,sp,-32
80021e24:	afbf001c 	sw	ra,28(sp)
80021e28:	afbe0018 	sw	s8,24(sp)
80021e2c:	03a0f021 	move	s8,sp
80021e30:	3c028007 	lui	v0,0x8007
80021e34:	24423130 	addiu	v0,v0,12592
80021e38:	8c420004 	lw	v0,4(v0)
80021e3c:	afc20010 	sw	v0,16(s8)
80021e40:	8fc30010 	lw	v1,16(s8)
80021e44:	24020004 	li	v0,4
80021e48:	a0620005 	sb	v0,5(v1)
80021e4c:	3c028007 	lui	v0,0x8007
80021e50:	8c433130 	lw	v1,12592(v0)
80021e54:	8fc20010 	lw	v0,16(s8)
80021e58:	14620005 	bne	v1,v0,80021e70 <exit+0x50>
80021e5c:	00000000 	nop
80021e60:	3c028007 	lui	v0,0x8007
80021e64:	8fc30010 	lw	v1,16(s8)
80021e68:	8c630080 	lw	v1,128(v1)
80021e6c:	ac433130 	sw	v1,12592(v0)
80021e70:	8fc20010 	lw	v0,16(s8)
80021e74:	8c420084 	lw	v0,132(v0)
80021e78:	10400006 	beqz	v0,80021e94 <exit+0x74>
80021e7c:	00000000 	nop
80021e80:	8fc20010 	lw	v0,16(s8)
80021e84:	8c430084 	lw	v1,132(v0)
80021e88:	8fc20010 	lw	v0,16(s8)
80021e8c:	8c420080 	lw	v0,128(v0)
80021e90:	ac620080 	sw	v0,128(v1)
80021e94:	8fc20010 	lw	v0,16(s8)
80021e98:	8c420080 	lw	v0,128(v0)
80021e9c:	10400006 	beqz	v0,80021eb8 <exit+0x98>
80021ea0:	00000000 	nop
80021ea4:	8fc20010 	lw	v0,16(s8)
80021ea8:	8c430080 	lw	v1,128(v0)
80021eac:	8fc20010 	lw	v0,16(s8)
80021eb0:	8c420084 	lw	v0,132(v0)
80021eb4:	ac620084 	sw	v0,132(v1)
80021eb8:	3c028007 	lui	v0,0x8007
80021ebc:	24433130 	addiu	v1,v0,12592
80021ec0:	8fc20010 	lw	v0,16(s8)
80021ec4:	8c420080 	lw	v0,128(v0)
80021ec8:	ac620004 	sw	v0,4(v1)
80021ecc:	8fc30010 	lw	v1,16(s8)
80021ed0:	8fc20010 	lw	v0,16(s8)
80021ed4:	ac400080 	sw	zero,128(v0)
80021ed8:	ac600084 	sw	zero,132(v1)
80021edc:	8fc40010 	lw	a0,16(s8)
80021ee0:	0c008761 	jal	80021d84 <p_free_pcb>
80021ee4:	00000000 	nop
80021ee8:	3c028002 	lui	v0,0x8002
80021eec:	244428b4 	addiu	a0,v0,10420
80021ef0:	0c008457 	jal	8002115c <DputStr>
80021ef4:	00000000 	nop
80021ef8:	3c028002 	lui	v0,0x8002
80021efc:	244428c0 	addiu	a0,v0,10432
80021f00:	0c008457 	jal	8002115c <DputStr>
80021f04:	00000000 	nop
80021f08:	080087c2 	j	80021f08 <exit+0xe8>
80021f0c:	00000000 	nop

80021f10 <unblock>:
80021f10:	27bdfff8 	addiu	sp,sp,-8
80021f14:	afbe0000 	sw	s8,0(sp)
80021f18:	03a0f021 	move	s8,sp
80021f1c:	afc40008 	sw	a0,8(s8)
80021f20:	3c028007 	lui	v0,0x8007
80021f24:	24423130 	addiu	v0,v0,12592
80021f28:	8c430008 	lw	v1,8(v0)
80021f2c:	8fc20008 	lw	v0,8(s8)
80021f30:	14620006 	bne	v1,v0,80021f4c <unblock+0x3c>
80021f34:	00000000 	nop
80021f38:	3c028007 	lui	v0,0x8007
80021f3c:	24433130 	addiu	v1,v0,12592
80021f40:	8fc20008 	lw	v0,8(s8)
80021f44:	8c420080 	lw	v0,128(v0)
80021f48:	ac620008 	sw	v0,8(v1)
80021f4c:	8fc20008 	lw	v0,8(s8)
80021f50:	8c420084 	lw	v0,132(v0)
80021f54:	10400006 	beqz	v0,80021f70 <unblock+0x60>
80021f58:	00000000 	nop
80021f5c:	8fc20008 	lw	v0,8(s8)
80021f60:	8c430084 	lw	v1,132(v0)
80021f64:	8fc20008 	lw	v0,8(s8)
80021f68:	8c420080 	lw	v0,128(v0)
80021f6c:	ac620080 	sw	v0,128(v1)
80021f70:	8fc20008 	lw	v0,8(s8)
80021f74:	8c420080 	lw	v0,128(v0)
80021f78:	10400006 	beqz	v0,80021f94 <unblock+0x84>
80021f7c:	00000000 	nop
80021f80:	8fc20008 	lw	v0,8(s8)
80021f84:	8c430080 	lw	v1,128(v0)
80021f88:	8fc20008 	lw	v0,8(s8)
80021f8c:	8c420084 	lw	v0,132(v0)
80021f90:	ac620084 	sw	v0,132(v1)
80021f94:	8fc30008 	lw	v1,8(s8)
80021f98:	8fc20008 	lw	v0,8(s8)
80021f9c:	ac400080 	sw	zero,128(v0)
80021fa0:	ac600084 	sw	zero,132(v1)
80021fa4:	03c0e821 	move	sp,s8
80021fa8:	8fbe0000 	lw	s8,0(sp)
80021fac:	27bd0008 	addiu	sp,sp,8
80021fb0:	03e00008 	jr	ra
80021fb4:	00000000 	nop

80021fb8 <set_priority>:
80021fb8:	27bdfff8 	addiu	sp,sp,-8
80021fbc:	afbe0000 	sw	s8,0(sp)
80021fc0:	03a0f021 	move	s8,sp
80021fc4:	afc40008 	sw	a0,8(s8)
80021fc8:	afc5000c 	sw	a1,12(s8)
80021fcc:	8fc30008 	lw	v1,8(s8)
80021fd0:	8fc2000c 	lw	v0,12(s8)
80021fd4:	a0620004 	sb	v0,4(v1)
80021fd8:	03c0e821 	move	sp,s8
80021fdc:	8fbe0000 	lw	s8,0(sp)
80021fe0:	27bd0008 	addiu	sp,sp,8
80021fe4:	03e00008 	jr	ra
80021fe8:	00000000 	nop

80021fec <list_queue>:
80021fec:	27bdfff0 	addiu	sp,sp,-16
80021ff0:	afbe0008 	sw	s8,8(sp)
80021ff4:	03a0f021 	move	s8,sp
80021ff8:	afc40010 	sw	a0,16(s8)
80021ffc:	8fc20010 	lw	v0,16(s8)
80022000:	afc20004 	sw	v0,4(s8)
80022004:	24020001 	li	v0,1
80022008:	8fc30004 	lw	v1,4(s8)
8002200c:	10620007 	beq	v1,v0,8002202c <list_queue+0x40>
80022010:	00000000 	nop
80022014:	24020002 	li	v0,2
80022018:	8fc30004 	lw	v1,4(s8)
8002201c:	10620009 	beq	v1,v0,80022044 <list_queue+0x58>
80022020:	00000000 	nop
80022024:	08008817 	j	8002205c <list_queue+0x70>
80022028:	00000000 	nop
8002202c:	3c028007 	lui	v0,0x8007
80022030:	24423130 	addiu	v0,v0,12592
80022034:	8c420004 	lw	v0,4(v0)
80022038:	afc20000 	sw	v0,0(s8)
8002203c:	08008818 	j	80022060 <list_queue+0x74>
80022040:	00000000 	nop
80022044:	3c028007 	lui	v0,0x8007
80022048:	24423130 	addiu	v0,v0,12592
8002204c:	8c420008 	lw	v0,8(v0)
80022050:	afc20000 	sw	v0,0(s8)
80022054:	08008818 	j	80022060 <list_queue+0x74>
80022058:	00000000 	nop
8002205c:	afc00000 	sw	zero,0(s8)
80022060:	8fc20000 	lw	v0,0(s8)
80022064:	03c0e821 	move	sp,s8
80022068:	8fbe0008 	lw	s8,8(sp)
8002206c:	27bd0010 	addiu	sp,sp,16
80022070:	03e00008 	jr	ra
80022074:	00000000 	nop

80022078 <make_process>:
80022078:	27bdffe0 	addiu	sp,sp,-32
8002207c:	afbf001c 	sw	ra,28(sp)
80022080:	afbe0018 	sw	s8,24(sp)
80022084:	03a0f021 	move	s8,sp
80022088:	afc40020 	sw	a0,32(s8)
8002208c:	afc50024 	sw	a1,36(s8)
80022090:	0c00874a 	jal	80021d28 <get_pcb>
80022094:	00000000 	nop
80022098:	afc20010 	sw	v0,16(s8)
8002209c:	8fc40010 	lw	a0,16(s8)
800220a0:	3c058002 	lui	a1,0x8002
800220a4:	8fc30020 	lw	v1,32(s8)
800220a8:	00601021 	move	v0,v1
800220ac:	00021040 	sll	v0,v0,0x1
800220b0:	00431021 	addu	v0,v0,v1
800220b4:	000218c0 	sll	v1,v0,0x3
800220b8:	24a23038 	addiu	v0,a1,12344
800220bc:	00621021 	addu	v0,v1,v0
800220c0:	94420000 	lhu	v0,0(v0)
800220c4:	a4820002 	sh	v0,2(a0)
800220c8:	8fc30010 	lw	v1,16(s8)
800220cc:	24020002 	li	v0,2
800220d0:	a0620005 	sb	v0,5(v1)
800220d4:	8fc50010 	lw	a1,16(s8)
800220d8:	3c028002 	lui	v0,0x8002
800220dc:	8fc30020 	lw	v1,32(s8)
800220e0:	24443038 	addiu	a0,v0,12344
800220e4:	00601021 	move	v0,v1
800220e8:	00021040 	sll	v0,v0,0x1
800220ec:	00431021 	addu	v0,v0,v1
800220f0:	000210c0 	sll	v0,v0,0x3
800220f4:	00441021 	addu	v0,v0,a0
800220f8:	8c420014 	lw	v0,20(v0)
800220fc:	aca20078 	sw	v0,120(a1)
80022100:	8fc30010 	lw	v1,16(s8)
80022104:	3c028002 	lui	v0,0x8002
80022108:	2442260c 	addiu	v0,v0,9740
8002210c:	ac620074 	sw	v0,116(v1)
80022110:	8fc30010 	lw	v1,16(s8)
80022114:	8fc20024 	lw	v0,36(s8)
80022118:	a0620004 	sb	v0,4(v1)
8002211c:	8fc40010 	lw	a0,16(s8)
80022120:	0c008871 	jal	800221c4 <S_add_new_pcb>
80022124:	00000000 	nop
80022128:	8fc20010 	lw	v0,16(s8)
8002212c:	80420000 	lb	v0,0(v0)
80022130:	03c0e821 	move	sp,s8
80022134:	8fbf001c 	lw	ra,28(sp)
80022138:	8fbe0018 	lw	s8,24(sp)
8002213c:	27bd0020 	addiu	sp,sp,32
80022140:	03e00008 	jr	ra
80022144:	00000000 	nop

80022148 <S_schedule>:
80022148:	27bdffe8 	addiu	sp,sp,-24
8002214c:	afbf0014 	sw	ra,20(sp)
80022150:	afbe0010 	sw	s8,16(sp)
80022154:	03a0f021 	move	s8,sp
80022158:	3c028008 	lui	v0,0x8008
8002215c:	8c428c2c 	lw	v0,-29652(v0)
80022160:	8c420000 	lw	v0,0(v0)
80022164:	14400003 	bnez	v0,80022174 <S_schedule+0x2c>
80022168:	00000000 	nop
8002216c:	0800886b 	j	800221ac <S_schedule+0x64>
80022170:	00000000 	nop
80022174:	3c028008 	lui	v0,0x8008
80022178:	8c428c2c 	lw	v0,-29652(v0)
8002217c:	8c420004 	lw	v0,4(v0)
80022180:	24420008 	addiu	v0,v0,8
80022184:	00402021 	move	a0,v0
80022188:	0c008922 	jal	80022488 <kset_registers>
8002218c:	00000000 	nop
80022190:	3c028008 	lui	v0,0x8008
80022194:	8c438c2c 	lw	v1,-29652(v0)
80022198:	3c028008 	lui	v0,0x8008
8002219c:	8c428c2c 	lw	v0,-29652(v0)
800221a0:	8c420004 	lw	v0,4(v0)
800221a4:	8c420080 	lw	v0,128(v0)
800221a8:	ac620004 	sw	v0,4(v1)
800221ac:	03c0e821 	move	sp,s8
800221b0:	8fbf0014 	lw	ra,20(sp)
800221b4:	8fbe0010 	lw	s8,16(sp)
800221b8:	27bd0018 	addiu	sp,sp,24
800221bc:	03e00008 	jr	ra
800221c0:	00000000 	nop

800221c4 <S_add_new_pcb>:
800221c4:	27bdfff8 	addiu	sp,sp,-8
800221c8:	afbe0000 	sw	s8,0(sp)
800221cc:	03a0f021 	move	s8,sp
800221d0:	afc40008 	sw	a0,8(s8)
800221d4:	3c028008 	lui	v0,0x8008
800221d8:	8c428c2c 	lw	v0,-29652(v0)
800221dc:	8c420000 	lw	v0,0(v0)
800221e0:	14400011 	bnez	v0,80022228 <S_add_new_pcb+0x64>
800221e4:	00000000 	nop
800221e8:	3c028008 	lui	v0,0x8008
800221ec:	8c438c2c 	lw	v1,-29652(v0)
800221f0:	8fc20008 	lw	v0,8(s8)
800221f4:	ac620000 	sw	v0,0(v1)
800221f8:	3c028008 	lui	v0,0x8008
800221fc:	8c438c2c 	lw	v1,-29652(v0)
80022200:	8fc20008 	lw	v0,8(s8)
80022204:	ac620004 	sw	v0,4(v1)
80022208:	8fc30008 	lw	v1,8(s8)
8002220c:	8fc20008 	lw	v0,8(s8)
80022210:	ac620080 	sw	v0,128(v1)
80022214:	8fc30008 	lw	v1,8(s8)
80022218:	8fc20008 	lw	v0,8(s8)
8002221c:	ac620084 	sw	v0,132(v1)
80022220:	080088a0 	j	80022280 <S_add_new_pcb+0xbc>
80022224:	00000000 	nop
80022228:	8fc30008 	lw	v1,8(s8)
8002222c:	3c028008 	lui	v0,0x8008
80022230:	8c428c2c 	lw	v0,-29652(v0)
80022234:	8c420004 	lw	v0,4(v0)
80022238:	ac620080 	sw	v0,128(v1)
8002223c:	8fc30008 	lw	v1,8(s8)
80022240:	3c028008 	lui	v0,0x8008
80022244:	8c428c2c 	lw	v0,-29652(v0)
80022248:	8c420004 	lw	v0,4(v0)
8002224c:	8c420084 	lw	v0,132(v0)
80022250:	ac620084 	sw	v0,132(v1)
80022254:	3c028008 	lui	v0,0x8008
80022258:	8c428c2c 	lw	v0,-29652(v0)
8002225c:	8c420004 	lw	v0,4(v0)
80022260:	8c430084 	lw	v1,132(v0)
80022264:	8fc20008 	lw	v0,8(s8)
80022268:	ac620080 	sw	v0,128(v1)
8002226c:	3c028008 	lui	v0,0x8008
80022270:	8c428c2c 	lw	v0,-29652(v0)
80022274:	8c430004 	lw	v1,4(v0)
80022278:	8fc20008 	lw	v0,8(s8)
8002227c:	ac620084 	sw	v0,132(v1)
80022280:	03c0e821 	move	sp,s8
80022284:	8fbe0000 	lw	s8,0(sp)
80022288:	27bd0008 	addiu	sp,sp,8
8002228c:	03e00008 	jr	ra
80022290:	00000000 	nop

80022294 <S_remove_active>:
80022294:	27bdfff0 	addiu	sp,sp,-16
80022298:	afbe0008 	sw	s8,8(sp)
8002229c:	03a0f021 	move	s8,sp
800222a0:	3c028008 	lui	v0,0x8008
800222a4:	8c428c2c 	lw	v0,-29652(v0)
800222a8:	8c420004 	lw	v0,4(v0)
800222ac:	8c420084 	lw	v0,132(v0)
800222b0:	afc20000 	sw	v0,0(s8)
800222b4:	3c028008 	lui	v0,0x8008
800222b8:	8c438c2c 	lw	v1,-29652(v0)
800222bc:	3c028008 	lui	v0,0x8008
800222c0:	8c428c2c 	lw	v0,-29652(v0)
800222c4:	8c420004 	lw	v0,4(v0)
800222c8:	8c630004 	lw	v1,4(v1)
800222cc:	8c420084 	lw	v0,132(v0)
800222d0:	14620016 	bne	v1,v0,8002232c <S_remove_active+0x98>
800222d4:	00000000 	nop
800222d8:	3c028008 	lui	v0,0x8008
800222dc:	8c428c2c 	lw	v0,-29652(v0)
800222e0:	8c430004 	lw	v1,4(v0)
800222e4:	3c028008 	lui	v0,0x8008
800222e8:	8c428c30 	lw	v0,-29648(v0)
800222ec:	8c420000 	lw	v0,0(v0)
800222f0:	ac620080 	sw	v0,128(v1)
800222f4:	3c028008 	lui	v0,0x8008
800222f8:	8c438c30 	lw	v1,-29648(v0)
800222fc:	3c028008 	lui	v0,0x8008
80022300:	8c428c2c 	lw	v0,-29652(v0)
80022304:	8c420004 	lw	v0,4(v0)
80022308:	ac620000 	sw	v0,0(v1)
8002230c:	3c028008 	lui	v0,0x8008
80022310:	8c428c2c 	lw	v0,-29652(v0)
80022314:	ac400004 	sw	zero,4(v0)
80022318:	3c028008 	lui	v0,0x8008
8002231c:	8c428c2c 	lw	v0,-29652(v0)
80022320:	ac400000 	sw	zero,0(v0)
80022324:	080088f6 	j	800223d8 <S_remove_active+0x144>
80022328:	00000000 	nop
8002232c:	3c028008 	lui	v0,0x8008
80022330:	8c428c2c 	lw	v0,-29652(v0)
80022334:	8c430000 	lw	v1,0(v0)
80022338:	8fc20000 	lw	v0,0(s8)
8002233c:	14620026 	bne	v1,v0,800223d8 <S_remove_active+0x144>
80022340:	00000000 	nop
80022344:	8fc20000 	lw	v0,0(s8)
80022348:	8c430084 	lw	v1,132(v0)
8002234c:	8fc20000 	lw	v0,0(s8)
80022350:	8c420080 	lw	v0,128(v0)
80022354:	ac620080 	sw	v0,128(v1)
80022358:	8fc20000 	lw	v0,0(s8)
8002235c:	8c430080 	lw	v1,128(v0)
80022360:	8fc20000 	lw	v0,0(s8)
80022364:	8c420084 	lw	v0,132(v0)
80022368:	ac620084 	sw	v0,132(v1)
8002236c:	3c028008 	lui	v0,0x8008
80022370:	8c438c2c 	lw	v1,-29652(v0)
80022374:	8fc20000 	lw	v0,0(s8)
80022378:	8c420080 	lw	v0,128(v0)
8002237c:	ac620000 	sw	v0,0(v1)
80022380:	3c028008 	lui	v0,0x8008
80022384:	8c428c30 	lw	v0,-29648(v0)
80022388:	8c420000 	lw	v0,0(v0)
8002238c:	14400009 	bnez	v0,800223b4 <S_remove_active+0x120>
80022390:	00000000 	nop
80022394:	8fc20000 	lw	v0,0(s8)
80022398:	ac400080 	sw	zero,128(v0)
8002239c:	3c028008 	lui	v0,0x8008
800223a0:	8c438c30 	lw	v1,-29648(v0)
800223a4:	8fc20000 	lw	v0,0(s8)
800223a8:	ac620000 	sw	v0,0(v1)
800223ac:	080088f6 	j	800223d8 <S_remove_active+0x144>
800223b0:	00000000 	nop
800223b4:	8fc30000 	lw	v1,0(s8)
800223b8:	3c028008 	lui	v0,0x8008
800223bc:	8c428c30 	lw	v0,-29648(v0)
800223c0:	8c420000 	lw	v0,0(v0)
800223c4:	ac620080 	sw	v0,128(v1)
800223c8:	3c028008 	lui	v0,0x8008
800223cc:	8c438c30 	lw	v1,-29648(v0)
800223d0:	8fc20000 	lw	v0,0(s8)
800223d4:	ac620000 	sw	v0,0(v1)
800223d8:	03c0e821 	move	sp,s8
800223dc:	8fbe0008 	lw	s8,8(sp)
800223e0:	27bd0010 	addiu	sp,sp,16
800223e4:	03e00008 	jr	ra
800223e8:	00000000 	nop

800223ec <init_scheduler>:
800223ec:	27bdfff8 	addiu	sp,sp,-8
800223f0:	afbe0000 	sw	s8,0(sp)
800223f4:	03a0f021 	move	s8,sp
800223f8:	afc40008 	sw	a0,8(s8)
800223fc:	afc5000c 	sw	a1,12(s8)
80022400:	3c038008 	lui	v1,0x8008
80022404:	8fc20008 	lw	v0,8(s8)
80022408:	ac628c2c 	sw	v0,-29652(v1)
8002240c:	3c038008 	lui	v1,0x8008
80022410:	8fc2000c 	lw	v0,12(s8)
80022414:	ac628c30 	sw	v0,-29648(v1)
80022418:	03c0e821 	move	sp,s8
8002241c:	8fbe0000 	lw	s8,0(sp)
80022420:	27bd0008 	addiu	sp,sp,8
80022424:	03e00008 	jr	ra
80022428:	00000000 	nop

8002242c <kset_sr>:
8002242c:	40026000 00441024 00451025 40826000     .`.@$.D.%.E..`.@
8002243c:	03e00008 00000000                       ........

80022444 <kget_sr>:
80022444:	40026000 03e00008 00000000              .`.@........

80022450 <kset_cause>:
80022450:	40026800 00441024 00451025 40826800     .h.@$.D.%.E..h.@
80022460:	03e00008 00000000                       ........

80022468 <kget_cause>:
80022468:	3c028002 8c4230b4 03e00008 00000000     ...<.0B.........

80022478 <kload_timer>:
80022478:	40804800 40845800 03e00008 00000000     .H.@.X.@........

80022488 <kset_registers>:
80022488:	3c018002 ac2430b0 03e00008 00000000     ...<.0$.........

80022498 <kget_registers>:
80022498:	3c028002 8c4230b0 03e00008 00000000     ...<.0B.........

800224a8 <kdebug_magic_break>:
800224a8:	24000000 03e00008 00000000              ...$........

800224b4 <exceptstub>:
800224b4:	203b0000 	addi	k1,at,0
800224b8:	401a6800 	mfc0	k0,c0_cause
800224bc:	3c018002 	lui	at,0x8002
800224c0:	ac3a30b4 	sw	k0,12468(at)
800224c4:	3c1a8002 	lui	k0,0x8002
800224c8:	275a24d4 	addiu	k0,k0,9428
800224cc:	03400008 	jr	k0
800224d0:	00000000 	nop

800224d4 <exception_handler>:
800224d4:	3c1a8002 	lui	k0,0x8002
800224d8:	8f5a30b0 	lw	k0,12464(k0)
800224dc:	af5b0000 	sw	k1,0(k0)
800224e0:	af420004 	sw	v0,4(k0)
800224e4:	af430008 	sw	v1,8(k0)
800224e8:	af44000c 	sw	a0,12(k0)
800224ec:	af450010 	sw	a1,16(k0)
800224f0:	af460014 	sw	a2,20(k0)
800224f4:	af470018 	sw	a3,24(k0)
800224f8:	af48001c 	sw	t0,28(k0)
800224fc:	af490020 	sw	t1,32(k0)
80022500:	af4a0024 	sw	t2,36(k0)
80022504:	af4b0028 	sw	t3,40(k0)
80022508:	af4c002c 	sw	t4,44(k0)
8002250c:	af4d0030 	sw	t5,48(k0)
80022510:	af4e0034 	sw	t6,52(k0)
80022514:	af4f0038 	sw	t7,56(k0)
80022518:	af58003c 	sw	t8,60(k0)
8002251c:	af590040 	sw	t9,64(k0)
80022520:	af500044 	sw	s0,68(k0)
80022524:	af510048 	sw	s1,72(k0)
80022528:	af52004c 	sw	s2,76(k0)
8002252c:	af530050 	sw	s3,80(k0)
80022530:	af540054 	sw	s4,84(k0)
80022534:	af550058 	sw	s5,88(k0)
80022538:	af56005c 	sw	s6,92(k0)
8002253c:	af570060 	sw	s7,96(k0)
80022540:	af5d0064 	sw	sp,100(k0)
80022544:	af5e0068 	sw	s8,104(k0)
80022548:	af5c0074 	sw	gp,116(k0)
8002254c:	af5f006c 	sw	ra,108(k0)
80022550:	401b7000 	mfc0	k1,c0_epc
	...
80022560:	af5b0070 	sw	k1,112(k0)
80022564:	3c1d8007 	lui	sp,0x8007
80022568:	27bd30b8 	addiu	sp,sp,12472
8002256c:	0c008377 	jal	80020ddc <kexception>
80022570:	00000000 	nop
80022574:	3c1a8002 	lui	k0,0x8002
80022578:	8f5a30b0 	lw	k0,12464(k0)
8002257c:	8f420004 	lw	v0,4(k0)
80022580:	8f430008 	lw	v1,8(k0)
80022584:	8f44000c 	lw	a0,12(k0)
80022588:	8f450010 	lw	a1,16(k0)
8002258c:	8f460014 	lw	a2,20(k0)
80022590:	8f470018 	lw	a3,24(k0)
80022594:	8f48001c 	lw	t0,28(k0)
80022598:	8f490020 	lw	t1,32(k0)
8002259c:	8f4a0024 	lw	t2,36(k0)
800225a0:	8f4b0028 	lw	t3,40(k0)
800225a4:	8f4c002c 	lw	t4,44(k0)
800225a8:	8f4d0030 	lw	t5,48(k0)
800225ac:	8f4e0034 	lw	t6,52(k0)
800225b0:	8f4f0038 	lw	t7,56(k0)
800225b4:	8f58003c 	lw	t8,60(k0)
800225b8:	8f590040 	lw	t9,64(k0)
800225bc:	8f500044 	lw	s0,68(k0)
800225c0:	8f510048 	lw	s1,72(k0)
800225c4:	8f52004c 	lw	s2,76(k0)
800225c8:	8f530050 	lw	s3,80(k0)
800225cc:	8f540054 	lw	s4,84(k0)
800225d0:	8f550058 	lw	s5,88(k0)
800225d4:	8f56005c 	lw	s6,92(k0)
800225d8:	8f570060 	lw	s7,96(k0)
800225dc:	8f5d0064 	lw	sp,100(k0)
800225e0:	8f5e0068 	lw	s8,104(k0)
800225e4:	8f5c0074 	lw	gp,116(k0)
800225e8:	8f5f006c 	lw	ra,108(k0)
800225ec:	8f5b0070 	lw	k1,112(k0)
800225f0:	8f5a0000 	lw	k0,0(k0)
800225f4:	409b7000 	mtc0	k1,c0_epc
800225f8:	23410000 	addi	at,k0,0
	...
80022608:	42000018 	eret

8002260c <syscall_exit>:
8002260c:	3c028002 24421e20 0000000c 03e00008     ...< .B$........
8002261c:	00000000                                ....

80022620 <syscall_putMalta>:
80022620:	3c028002 24420ffc 0000000c 03e00008     ...<..B$........
80022630:	00000000                                ....

80022634 <syscall_putStr>:
80022634:	3c028002 244212d0 0000000c 03e00008     ...<..B$........
80022644:	00000000                                ....

80022648 <syscall_putC>:
80022648:	3c028002 244211cc 0000000c 03e00008     ...<..B$........
80022658:	00000000                                ....

8002265c <ksyscall_handler>:
8002265c:	20820000 8c44000c 8c450010 8c460014     ... ..D...E...F.
8002266c:	8c470018 8c420004 00400008 00000000     ..G...B...@.....

8002267c <_start>:
8002267c:	3c088002 250824b4 3c0a8002 254a24d4     ...<.$.%...<.$J%
8002268c:	3c09a000 35290180 01485023              ...<..)5#PH.

80022698 <copyloop>:
80022698:	8d020000 	lw	v0,0(t0)
8002269c:	ad220000 	sw	v0,0(t1)
800226a0:	25080004 	addiu	t0,t0,4
800226a4:	25290004 	addiu	t1,t1,4
800226a8:	254afffc 	addiu	t2,t2,-4
800226ac:	0541fffa 	bgez	t2,80022698 <copyloop>
800226b0:	00000000 	nop
800226b4:	3c1c8000 	lui	gp,0x8000
800226b8:	3c1d8007 	lui	sp,0x8007
800226bc:	27bd30b8 	addiu	sp,sp,12472
800226c0:	08008000 	j	80020000 <init>
800226c4:	00000000 	nop
